ARM GAS  C:\Users\cta10\AppData\Local\Temp\ccN2Amyh.s 			page 1


   1              		.syntax unified
   2              		.cpu cortex-m3
   3              		.fpu softvfp
   4              		.eabi_attribute 20, 1
   5              		.eabi_attribute 21, 1
   6              		.eabi_attribute 23, 3
   7              		.eabi_attribute 24, 1
   8              		.eabi_attribute 25, 1
   9              		.eabi_attribute 26, 1
  10              		.eabi_attribute 30, 6
  11              		.eabi_attribute 34, 1
  12              		.eabi_attribute 18, 4
  13              		.thumb
  14              		.syntax unified
  15              		.file	"main.c"
  16              		.text
  17              	.Ltext0:
  18              		.cfi_sections	.debug_frame
  19              		.global	ts
  20              		.bss
  21              		.type	ts, %object
  22              		.size	ts, 1
  23              	ts:
  24 0000 00       		.space	1
  25              		.global	ts_enc
  26 0001 00       		.align	1
  27              		.type	ts_enc, %object
  28              		.size	ts_enc, 2
  29              	ts_enc:
  30 0002 0000     		.space	2
  31              		.global	ts_update
  32              		.align	1
  33              		.type	ts_update, %object
  34              		.size	ts_update, 2
  35              	ts_update:
  36 0004 0000     		.space	2
  37              		.global	ts_speed
  38              		.align	1
  39              		.type	ts_speed, %object
  40              		.size	ts_speed, 2
  41              	ts_speed:
  42 0006 0000     		.space	2
  43              		.global	ts_display
  44              		.align	1
  45              		.type	ts_display, %object
  46              		.size	ts_display, 2
  47              	ts_display:
  48 0008 0000     		.space	2
  49              		.global	flag_ts_enc
  50              		.type	flag_ts_enc, %object
  51              		.size	flag_ts_enc, 1
  52              	flag_ts_enc:
  53 000a 00       		.space	1
  54              		.global	flag_ts_update
  55              		.type	flag_ts_update, %object
  56              		.size	flag_ts_update, 1
  57              	flag_ts_update:
ARM GAS  C:\Users\cta10\AppData\Local\Temp\ccN2Amyh.s 			page 2


  58 000b 00       		.space	1
  59              		.global	flag_ts_speed
  60              		.type	flag_ts_speed, %object
  61              		.size	flag_ts_speed, 1
  62              	flag_ts_speed:
  63 000c 00       		.space	1
  64              		.global	flag_ts_display
  65              		.type	flag_ts_display, %object
  66              		.size	flag_ts_display, 1
  67              	flag_ts_display:
  68 000d 00       		.space	1
  69              		.global	flag_rx
  70              		.type	flag_rx, %object
  71              		.size	flag_rx, 1
  72              	flag_rx:
  73 000e 00       		.space	1
  74              		.global	flag_packet
  75              		.type	flag_packet, %object
  76              		.size	flag_packet, 1
  77              	flag_packet:
  78 000f 00       		.space	1
  79              		.global	flag_KB_string
  80              		.type	flag_KB_string, %object
  81              		.size	flag_KB_string, 1
  82              	flag_KB_string:
  83 0010 00       		.space	1
  84              		.global	dataready_flag
  85              		.type	dataready_flag, %object
  86              		.size	dataready_flag, 1
  87              	dataready_flag:
  88 0011 00       		.space	1
  89              		.global	flag_rf_transmission_active
  90              		.data
  91              		.type	flag_rf_transmission_active, %object
  92              		.size	flag_rf_transmission_active, 1
  93              	flag_rf_transmission_active:
  94 0000 0A       		.byte	10
  95              		.global	displaystring
  96 0001 000000   		.align	2
  97              		.type	displaystring, %object
  98              		.size	displaystring, 64
  99              	displaystring:
 100 0004 43533330 		.ascii	"CS301 2016\012\000"
 100      31203230 
 100      31360A00 
 101 0010 00000000 		.space	52
 101      00000000 
 101      00000000 
 101      00000000 
 101      00000000 
 102              		.comm	line,64,4
 103              		.comm	entry,64,4
 104              		.comm	usbBuffer,64,4
 105              		.comm	system_state,32,4
 106              		.section	.rodata
 107              		.align	2
 108              	.LC0:
ARM GAS  C:\Users\cta10\AppData\Local\Temp\ccN2Amyh.s 			page 3


 109 0000 4F555431 		.ascii	"OUT1=%d\015\012\000"
 109      3D25640D 
 109      0A00
 110              		.section	.text.main,"ax",%progbits
 111              		.align	2
 112              		.global	main
 113              		.thumb
 114              		.thumb_func
 115              		.type	main, %function
 116              	main:
 117              	.LFB64:
 118              		.file 1 "main.c"
   1:main.c        **** /* ========================================
   2:main.c        ****  * Fully working code: 
   3:main.c        ****  * PWM      : 
   4:main.c        ****  * Encoder  : 
   5:main.c        ****  * ADC      :
   6:main.c        ****  * USB      : port displays speed and position.
   7:main.c        ****  * CMD: "PW xx"
   8:main.c        ****  * Copyright Univ of Auckland, 2016
   9:main.c        ****  * All Rights Reserved
  10:main.c        ****  * UNPUBLISHED, LICENSED SOFTWARE.
  11:main.c        ****  *
  12:main.c        ****  * CONFIDENTIAL AND PROPRIETARY INFORMATION
  13:main.c        ****  * WHICH IS THE PROPERTY OF Univ of Auckland.
  14:main.c        ****  *
  15:main.c        ****  * ========================================
  16:main.c        **** */
  17:main.c        **** #include <stdio.h>
  18:main.c        **** #include <string.h>
  19:main.c        **** #include <stdlib.h>
  20:main.c        **** #include <project.h>
  21:main.c        **** //* ========================================
  22:main.c        **** #include "defines.h"
  23:main.c        **** #include "vars.h"
  24:main.c        **** #include "isr_eoc2.h"
  25:main.c        **** //* ========================================
  26:main.c        **** void usbPutString(char *s);
  27:main.c        **** void usbPutChar(char c);
  28:main.c        **** void handle_usb();
  29:main.c        **** //* ========================================
  30:main.c        **** extern uint8_t sample_flag;
  31:main.c        **** 
  32:main.c        **** 
  33:main.c        **** 
  34:main.c        **** 
  35:main.c        **** int main()
  36:main.c        **** {
 119              		.loc 1 36 0
 120              		.cfi_startproc
 121              		@ args = 0, pretend = 0, frame = 16
 122              		@ frame_needed = 1, uses_anonymous_args = 0
 123 0000 80B5     		push	{r7, lr}
 124              		.cfi_def_cfa_offset 8
 125              		.cfi_offset 7, -8
 126              		.cfi_offset 14, -4
 127 0002 84B0     		sub	sp, sp, #16
ARM GAS  C:\Users\cta10\AppData\Local\Temp\ccN2Amyh.s 			page 4


 128              		.cfi_def_cfa_offset 24
 129 0004 00AF     		add	r7, sp, #0
 130              		.cfi_def_cfa_register 7
  37:main.c        ****     
  38:main.c        **** 
  39:main.c        **** // --------------------------------    
  40:main.c        **** // ----- INITIALIZATIONS ----------
  41:main.c        ****     CYGlobalIntEnable;
 131              		.loc 1 41 0
 132              		.syntax unified
 133              	@ 41 "main.c" 1
 134 0006 62B6     		CPSIE   i
 135              	@ 0 "" 2
  42:main.c        ****     //PWM_1_Start();
  43:main.c        ****     //PWM_2_Start();
  44:main.c        ****     //isr_eoc2_Start();
  45:main.c        ****     //ADC_SAR_1_Start();
  46:main.c        ****     //VDAC_Start();
  47:main.c        ****     
  48:main.c        **** 
  49:main.c        **** // ------USB SETUP ----------------    
  50:main.c        **** #ifdef USE_USB    
  51:main.c        ****     USBUART_Start(0,USBUART_5V_OPERATION);
 136              		.loc 1 51 0
 137              		.thumb
 138              		.syntax unified
 139 0008 0121     		movs	r1, #1
 140 000a 0020     		movs	r0, #0
 141 000c FFF7FEFF 		bl	USBUART_Start
  52:main.c        **** #endif        
  53:main.c        ****         
  54:main.c        ****     RF_BT_SELECT_Write(0);
 142              		.loc 1 54 0
 143 0010 0020     		movs	r0, #0
 144 0012 FFF7FEFF 		bl	RF_BT_SELECT_Write
  55:main.c        **** 
  56:main.c        ****     usbPutString(displaystring);
 145              		.loc 1 56 0
 146 0016 1148     		ldr	r0, .L4
 147 0018 FFF7FEFF 		bl	usbPutString
  57:main.c        ****     Timer_TS_Start();
 148              		.loc 1 57 0
 149 001c FFF7FEFF 		bl	Timer_TS_Start
 150              	.L3:
 151              	.LBB2:
  58:main.c        ****     for(;;)
  59:main.c        ****     {
  60:main.c        ****         /* Place your application code here. */
  61:main.c        ****         handle_usb();
 152              		.loc 1 61 0
 153 0020 FFF7FEFF 		bl	handle_usb
  62:main.c        ****         if (flag_KB_string == 1)
 154              		.loc 1 62 0
 155 0024 0E4B     		ldr	r3, .L4+4
 156 0026 1B78     		ldrb	r3, [r3]	@ zero_extendqisi2
 157 0028 012B     		cmp	r3, #1
 158 002a 05D1     		bne	.L2
ARM GAS  C:\Users\cta10\AppData\Local\Temp\ccN2Amyh.s 			page 5


  63:main.c        ****         {
  64:main.c        ****             usbPutString(line);
 159              		.loc 1 64 0
 160 002c 0D48     		ldr	r0, .L4+8
 161 002e FFF7FEFF 		bl	usbPutString
  65:main.c        ****             flag_KB_string = 0;
 162              		.loc 1 65 0
 163 0032 0B4B     		ldr	r3, .L4+4
 164 0034 0022     		movs	r2, #0
 165 0036 1A70     		strb	r2, [r3]
 166              	.L2:
  66:main.c        ****         }
  67:main.c        ****         //if (sample_flag){
  68:main.c        ****             //uint8 adc_val = ADC_SAR_1_GetResult8();
  69:main.c        ****             //VDAC_SetValue(adc_val);
  70:main.c        ****             //sample_flag = 0;
  71:main.c        ****         //}
  72:main.c        ****                 // --- minimal OUT1 read + print ---
  73:main.c        ****         char buf[16];
  74:main.c        ****         sprintf(buf, "OUT1=%d\r\n", OUT1_Read());
 167              		.loc 1 74 0
 168 0038 FFF7FEFF 		bl	OUT1_Read
 169 003c 0346     		mov	r3, r0
 170 003e 1A46     		mov	r2, r3
 171 0040 3B46     		mov	r3, r7
 172 0042 0949     		ldr	r1, .L4+12
 173 0044 1846     		mov	r0, r3
 174 0046 FFF7FEFF 		bl	sprintf
  75:main.c        ****         usbPutString(buf);
 175              		.loc 1 75 0
 176 004a 3B46     		mov	r3, r7
 177 004c 1846     		mov	r0, r3
 178 004e FFF7FEFF 		bl	usbPutString
  76:main.c        ****         // ---------------------------------
  77:main.c        **** 
  78:main.c        ****         CyDelay(100); // add a small delay to avoid flooding USB terminal
 179              		.loc 1 78 0
 180 0052 6420     		movs	r0, #100
 181 0054 FFF7FEFF 		bl	CyDelay
 182              	.LBE2:
  79:main.c        ****         
  80:main.c        ****     }   
 183              		.loc 1 80 0
 184 0058 E2E7     		b	.L3
 185              	.L5:
 186 005a 00BF     		.align	2
 187              	.L4:
 188 005c 00000000 		.word	displaystring
 189 0060 00000000 		.word	flag_KB_string
 190 0064 00000000 		.word	line
 191 0068 00000000 		.word	.LC0
 192              		.cfi_endproc
 193              	.LFE64:
 194              		.size	main, .-main
 195              		.section	.text.usbPutString,"ax",%progbits
 196              		.align	2
 197              		.global	usbPutString
ARM GAS  C:\Users\cta10\AppData\Local\Temp\ccN2Amyh.s 			page 6


 198              		.thumb
 199              		.thumb_func
 200              		.type	usbPutString, %function
 201              	usbPutString:
 202              	.LFB65:
  81:main.c        **** }
  82:main.c        **** //* ========================================
  83:main.c        **** void usbPutString(char *s)
  84:main.c        **** {
 203              		.loc 1 84 0
 204              		.cfi_startproc
 205              		@ args = 0, pretend = 0, frame = 8
 206              		@ frame_needed = 1, uses_anonymous_args = 0
 207 0000 80B5     		push	{r7, lr}
 208              		.cfi_def_cfa_offset 8
 209              		.cfi_offset 7, -8
 210              		.cfi_offset 14, -4
 211 0002 82B0     		sub	sp, sp, #8
 212              		.cfi_def_cfa_offset 16
 213 0004 00AF     		add	r7, sp, #0
 214              		.cfi_def_cfa_register 7
 215 0006 7860     		str	r0, [r7, #4]
  85:main.c        **** // !! Assumes that *s is a string with allocated space >=64 chars     
  86:main.c        **** //  Since USB implementation retricts data packets to 64 chars, this function truncates the
  87:main.c        **** //  length to 62 char (63rd char is a '!')
  88:main.c        **** 
  89:main.c        **** #ifdef USE_USB     
  90:main.c        ****     while (USBUART_CDCIsReady() == 0);
 216              		.loc 1 90 0
 217 0008 00BF     		nop
 218              	.L7:
 219              		.loc 1 90 0 is_stmt 0 discriminator 1
 220 000a FFF7FEFF 		bl	USBUART_CDCIsReady
 221 000e 0346     		mov	r3, r0
 222 0010 002B     		cmp	r3, #0
 223 0012 FAD0     		beq	.L7
  91:main.c        ****     s[63]='\0';
 224              		.loc 1 91 0 is_stmt 1
 225 0014 7B68     		ldr	r3, [r7, #4]
 226 0016 3F33     		adds	r3, r3, #63
 227 0018 0022     		movs	r2, #0
 228 001a 1A70     		strb	r2, [r3]
  92:main.c        ****     s[62]='!';
 229              		.loc 1 92 0
 230 001c 7B68     		ldr	r3, [r7, #4]
 231 001e 3E33     		adds	r3, r3, #62
 232 0020 2122     		movs	r2, #33
 233 0022 1A70     		strb	r2, [r3]
  93:main.c        ****     USBUART_PutData((uint8*)s,strlen(s));
 234              		.loc 1 93 0
 235 0024 7868     		ldr	r0, [r7, #4]
 236 0026 FFF7FEFF 		bl	strlen
 237 002a 0346     		mov	r3, r0
 238 002c 9BB2     		uxth	r3, r3
 239 002e 1946     		mov	r1, r3
 240 0030 7868     		ldr	r0, [r7, #4]
 241 0032 FFF7FEFF 		bl	USBUART_PutData
ARM GAS  C:\Users\cta10\AppData\Local\Temp\ccN2Amyh.s 			page 7


  94:main.c        **** #endif
  95:main.c        **** }
 242              		.loc 1 95 0
 243 0036 00BF     		nop
 244 0038 0837     		adds	r7, r7, #8
 245              		.cfi_def_cfa_offset 8
 246 003a BD46     		mov	sp, r7
 247              		.cfi_def_cfa_register 13
 248              		@ sp needed
 249 003c 80BD     		pop	{r7, pc}
 250              		.cfi_endproc
 251              	.LFE65:
 252              		.size	usbPutString, .-usbPutString
 253 003e 00BF     		.section	.text.usbPutChar,"ax",%progbits
 254              		.align	2
 255              		.global	usbPutChar
 256              		.thumb
 257              		.thumb_func
 258              		.type	usbPutChar, %function
 259              	usbPutChar:
 260              	.LFB66:
  96:main.c        **** //* ========================================
  97:main.c        **** void usbPutChar(char c)
  98:main.c        **** {
 261              		.loc 1 98 0
 262              		.cfi_startproc
 263              		@ args = 0, pretend = 0, frame = 8
 264              		@ frame_needed = 1, uses_anonymous_args = 0
 265 0000 80B5     		push	{r7, lr}
 266              		.cfi_def_cfa_offset 8
 267              		.cfi_offset 7, -8
 268              		.cfi_offset 14, -4
 269 0002 82B0     		sub	sp, sp, #8
 270              		.cfi_def_cfa_offset 16
 271 0004 00AF     		add	r7, sp, #0
 272              		.cfi_def_cfa_register 7
 273 0006 0346     		mov	r3, r0
 274 0008 FB71     		strb	r3, [r7, #7]
  99:main.c        **** #ifdef USE_USB     
 100:main.c        ****     while (USBUART_CDCIsReady() == 0);
 275              		.loc 1 100 0
 276 000a 00BF     		nop
 277              	.L9:
 278              		.loc 1 100 0 is_stmt 0 discriminator 1
 279 000c FFF7FEFF 		bl	USBUART_CDCIsReady
 280 0010 0346     		mov	r3, r0
 281 0012 002B     		cmp	r3, #0
 282 0014 FAD0     		beq	.L9
 101:main.c        ****     USBUART_PutChar(c);
 283              		.loc 1 101 0 is_stmt 1
 284 0016 FB79     		ldrb	r3, [r7, #7]	@ zero_extendqisi2
 285 0018 1846     		mov	r0, r3
 286 001a FFF7FEFF 		bl	USBUART_PutChar
 102:main.c        **** #endif    
 103:main.c        **** }
 287              		.loc 1 103 0
 288 001e 00BF     		nop
ARM GAS  C:\Users\cta10\AppData\Local\Temp\ccN2Amyh.s 			page 8


 289 0020 0837     		adds	r7, r7, #8
 290              		.cfi_def_cfa_offset 8
 291 0022 BD46     		mov	sp, r7
 292              		.cfi_def_cfa_register 13
 293              		@ sp needed
 294 0024 80BD     		pop	{r7, pc}
 295              		.cfi_endproc
 296              	.LFE66:
 297              		.size	usbPutChar, .-usbPutChar
 298 0026 00BF     		.section	.text.handle_usb,"ax",%progbits
 299              		.align	2
 300              		.global	handle_usb
 301              		.thumb
 302              		.thumb_func
 303              		.type	handle_usb, %function
 304              	handle_usb:
 305              	.LFB67:
 104:main.c        **** //* ========================================
 105:main.c        **** void handle_usb()
 106:main.c        **** {
 306              		.loc 1 106 0
 307              		.cfi_startproc
 308              		@ args = 0, pretend = 0, frame = 8
 309              		@ frame_needed = 1, uses_anonymous_args = 0
 310 0000 80B5     		push	{r7, lr}
 311              		.cfi_def_cfa_offset 8
 312              		.cfi_offset 7, -8
 313              		.cfi_offset 14, -4
 314 0002 82B0     		sub	sp, sp, #8
 315              		.cfi_def_cfa_offset 16
 316 0004 00AF     		add	r7, sp, #0
 317              		.cfi_def_cfa_register 7
 107:main.c        ****     // handles input at terminal, echos it back to the terminal
 108:main.c        ****     // turn echo OFF, key emulation: only CR
 109:main.c        ****     // entered string is made available in 'line' and 'flag_KB_string' is set
 110:main.c        ****     
 111:main.c        ****     static uint8 usbStarted = FALSE;
 112:main.c        ****     static uint16 usbBufCount = 0;
 113:main.c        ****     uint8 c; 
 114:main.c        ****     
 115:main.c        **** 
 116:main.c        ****     if (!usbStarted)
 318              		.loc 1 116 0
 319 0006 2B4B     		ldr	r3, .L20
 320 0008 1B78     		ldrb	r3, [r3]	@ zero_extendqisi2
 321 000a 002B     		cmp	r3, #0
 322 000c 0AD1     		bne	.L11
 117:main.c        ****     {
 118:main.c        ****         if (USBUART_GetConfiguration())
 323              		.loc 1 118 0
 324 000e FFF7FEFF 		bl	USBUART_GetConfiguration
 325 0012 0346     		mov	r3, r0
 326 0014 002B     		cmp	r3, #0
 327 0016 49D0     		beq	.L19
 119:main.c        ****         {
 120:main.c        ****             USBUART_CDC_Init();
 328              		.loc 1 120 0
ARM GAS  C:\Users\cta10\AppData\Local\Temp\ccN2Amyh.s 			page 9


 329 0018 FFF7FEFF 		bl	USBUART_CDC_Init
 121:main.c        ****             usbStarted = TRUE;
 330              		.loc 1 121 0
 331 001c 254B     		ldr	r3, .L20
 332 001e 0122     		movs	r2, #1
 333 0020 1A70     		strb	r2, [r3]
 122:main.c        ****         }
 123:main.c        ****     }
 124:main.c        ****     else
 125:main.c        ****     {
 126:main.c        ****         if (USBUART_DataIsReady() != 0)
 127:main.c        ****         {  
 128:main.c        ****             c = USBUART_GetChar();
 129:main.c        **** 
 130:main.c        ****             if ((c == 13) || (c == 10))
 131:main.c        ****             {
 132:main.c        **** //                if (usbBufCount > 0)
 133:main.c        ****                 {
 134:main.c        ****                     entry[usbBufCount]= '\0';
 135:main.c        ****                     strcpy(line,entry);
 136:main.c        ****                     usbBufCount = 0;
 137:main.c        ****                     flag_KB_string = 1;
 138:main.c        ****                 }
 139:main.c        ****             }
 140:main.c        ****             else 
 141:main.c        ****             {
 142:main.c        ****                 if (((c == CHAR_BACKSP) || (c == CHAR_DEL) ) && (usbBufCount > 0) )
 143:main.c        ****                     usbBufCount--;
 144:main.c        ****                 else
 145:main.c        ****                 {
 146:main.c        ****                     if (usbBufCount > (BUF_SIZE-2) ) // one less else strtok triggers a crash
 147:main.c        ****                     {
 148:main.c        ****                        USBUART_PutChar('!');        
 149:main.c        ****                     }
 150:main.c        ****                     else
 151:main.c        ****                         entry[usbBufCount++] = c;  
 152:main.c        ****                 }  
 153:main.c        ****             }
 154:main.c        ****         }
 155:main.c        ****     }    
 156:main.c        **** }
 334              		.loc 1 156 0
 335 0022 43E0     		b	.L19
 336              	.L11:
 126:main.c        ****         {  
 337              		.loc 1 126 0
 338 0024 FFF7FEFF 		bl	USBUART_DataIsReady
 339 0028 0346     		mov	r3, r0
 340 002a 002B     		cmp	r3, #0
 341 002c 3ED0     		beq	.L19
 128:main.c        **** 
 342              		.loc 1 128 0
 343 002e FFF7FEFF 		bl	USBUART_GetChar
 344 0032 0346     		mov	r3, r0
 345 0034 FB71     		strb	r3, [r7, #7]
 130:main.c        ****             {
 346              		.loc 1 130 0
ARM GAS  C:\Users\cta10\AppData\Local\Temp\ccN2Amyh.s 			page 10


 347 0036 FB79     		ldrb	r3, [r7, #7]	@ zero_extendqisi2
 348 0038 0D2B     		cmp	r3, #13
 349 003a 02D0     		beq	.L14
 130:main.c        ****             {
 350              		.loc 1 130 0 is_stmt 0 discriminator 1
 351 003c FB79     		ldrb	r3, [r7, #7]	@ zero_extendqisi2
 352 003e 0A2B     		cmp	r3, #10
 353 0040 10D1     		bne	.L15
 354              	.L14:
 134:main.c        ****                     strcpy(line,entry);
 355              		.loc 1 134 0 is_stmt 1
 356 0042 1D4B     		ldr	r3, .L20+4
 357 0044 1B88     		ldrh	r3, [r3]
 358 0046 1A46     		mov	r2, r3
 359 0048 1C4B     		ldr	r3, .L20+8
 360 004a 0021     		movs	r1, #0
 361 004c 9954     		strb	r1, [r3, r2]
 135:main.c        ****                     usbBufCount = 0;
 362              		.loc 1 135 0
 363 004e 1B49     		ldr	r1, .L20+8
 364 0050 1B48     		ldr	r0, .L20+12
 365 0052 FFF7FEFF 		bl	strcpy
 136:main.c        ****                     flag_KB_string = 1;
 366              		.loc 1 136 0
 367 0056 184B     		ldr	r3, .L20+4
 368 0058 0022     		movs	r2, #0
 369 005a 1A80     		strh	r2, [r3]	@ movhi
 137:main.c        ****                 }
 370              		.loc 1 137 0
 371 005c 194B     		ldr	r3, .L20+16
 372 005e 0122     		movs	r2, #1
 373 0060 1A70     		strb	r2, [r3]
 374 0062 23E0     		b	.L13
 375              	.L15:
 142:main.c        ****                     usbBufCount--;
 376              		.loc 1 142 0
 377 0064 FB79     		ldrb	r3, [r7, #7]	@ zero_extendqisi2
 378 0066 082B     		cmp	r3, #8
 379 0068 02D0     		beq	.L16
 142:main.c        ****                     usbBufCount--;
 380              		.loc 1 142 0 is_stmt 0 discriminator 2
 381 006a FB79     		ldrb	r3, [r7, #7]	@ zero_extendqisi2
 382 006c 7F2B     		cmp	r3, #127
 383 006e 0AD1     		bne	.L17
 384              	.L16:
 142:main.c        ****                     usbBufCount--;
 385              		.loc 1 142 0 discriminator 3
 386 0070 114B     		ldr	r3, .L20+4
 387 0072 1B88     		ldrh	r3, [r3]
 388 0074 002B     		cmp	r3, #0
 389 0076 06D0     		beq	.L17
 143:main.c        ****                 else
 390              		.loc 1 143 0 is_stmt 1
 391 0078 0F4B     		ldr	r3, .L20+4
 392 007a 1B88     		ldrh	r3, [r3]
 393 007c 013B     		subs	r3, r3, #1
 394 007e 9AB2     		uxth	r2, r3
ARM GAS  C:\Users\cta10\AppData\Local\Temp\ccN2Amyh.s 			page 11


 395 0080 0D4B     		ldr	r3, .L20+4
 396 0082 1A80     		strh	r2, [r3]	@ movhi
 397 0084 12E0     		b	.L13
 398              	.L17:
 146:main.c        ****                     {
 399              		.loc 1 146 0
 400 0086 0C4B     		ldr	r3, .L20+4
 401 0088 1B88     		ldrh	r3, [r3]
 402 008a 3E2B     		cmp	r3, #62
 403 008c 03D9     		bls	.L18
 148:main.c        ****                     }
 404              		.loc 1 148 0
 405 008e 2120     		movs	r0, #33
 406 0090 FFF7FEFF 		bl	USBUART_PutChar
 407              		.loc 1 156 0
 408 0094 0AE0     		b	.L19
 409              	.L18:
 151:main.c        ****                 }  
 410              		.loc 1 151 0
 411 0096 084B     		ldr	r3, .L20+4
 412 0098 1B88     		ldrh	r3, [r3]
 413 009a 5A1C     		adds	r2, r3, #1
 414 009c 91B2     		uxth	r1, r2
 415 009e 064A     		ldr	r2, .L20+4
 416 00a0 1180     		strh	r1, [r2]	@ movhi
 417 00a2 1946     		mov	r1, r3
 418 00a4 054A     		ldr	r2, .L20+8
 419 00a6 FB79     		ldrb	r3, [r7, #7]
 420 00a8 5354     		strb	r3, [r2, r1]
 421              		.loc 1 156 0
 422 00aa FFE7     		b	.L19
 423              	.L13:
 424              	.L19:
 425 00ac 00BF     		nop
 426 00ae 0837     		adds	r7, r7, #8
 427              		.cfi_def_cfa_offset 8
 428 00b0 BD46     		mov	sp, r7
 429              		.cfi_def_cfa_register 13
 430              		@ sp needed
 431 00b2 80BD     		pop	{r7, pc}
 432              	.L21:
 433              		.align	2
 434              	.L20:
 435 00b4 12000000 		.word	usbStarted.8324
 436 00b8 14000000 		.word	usbBufCount.8325
 437 00bc 00000000 		.word	entry
 438 00c0 00000000 		.word	line
 439 00c4 00000000 		.word	flag_KB_string
 440              		.cfi_endproc
 441              	.LFE67:
 442              		.size	handle_usb, .-handle_usb
 443              		.bss
 444              	usbStarted.8324:
 445 0012 00       		.space	1
 446 0013 00       		.align	1
 447              	usbBufCount.8325:
 448 0014 0000     		.space	2
ARM GAS  C:\Users\cta10\AppData\Local\Temp\ccN2Amyh.s 			page 12


 449              		.text
 450              	.Letext0:
 451              		.file 2 "c:\\program files (x86)\\cypress\\psoc creator\\4.4\\psoc creator\\import\\gnu\\arm\\5.4.
 452              		.file 3 "c:\\program files (x86)\\cypress\\psoc creator\\4.4\\psoc creator\\import\\gnu\\arm\\5.4.
 453              		.file 4 "Generated_Source\\PSoC5/cytypes.h"
 454              		.file 5 "vars.h"
 455              		.file 6 "Generated_Source\\PSoC5/core_cm3.h"