ARM GAS  C:\Users\cta10\AppData\Local\Temp\ccmEz0yb.s 			page 1


   1              		.syntax unified
   2              		.cpu cortex-m3
   3              		.fpu softvfp
   4              		.eabi_attribute 20, 1
   5              		.eabi_attribute 21, 1
   6              		.eabi_attribute 23, 3
   7              		.eabi_attribute 24, 1
   8              		.eabi_attribute 25, 1
   9              		.eabi_attribute 26, 1
  10              		.eabi_attribute 30, 6
  11              		.eabi_attribute 34, 1
  12              		.eabi_attribute 18, 4
  13              		.thumb
  14              		.syntax unified
  15              		.file	"front_right.c"
  16              		.text
  17              	.Ltext0:
  18              		.cfi_sections	.debug_frame
  19              		.section	.text.front_right_Start,"ax",%progbits
  20              		.align	2
  21              		.global	front_right_Start
  22              		.thumb
  23              		.thumb_func
  24              		.type	front_right_Start, %function
  25              	front_right_Start:
  26              	.LFB63:
  27              		.file 1 "Generated_Source\\PSoC5\\front_right.c"
   1:Generated_Source\PSoC5/front_right.c **** /*******************************************************************************
   2:Generated_Source\PSoC5/front_right.c **** * File Name: front_right.c  
   3:Generated_Source\PSoC5/front_right.c **** * Version 1.71
   4:Generated_Source\PSoC5/front_right.c **** *
   5:Generated_Source\PSoC5/front_right.c **** *  Description:
   6:Generated_Source\PSoC5/front_right.c **** *   API for controlling the state of an interrupt.
   7:Generated_Source\PSoC5/front_right.c **** *
   8:Generated_Source\PSoC5/front_right.c **** *
   9:Generated_Source\PSoC5/front_right.c **** *  Note:
  10:Generated_Source\PSoC5/front_right.c **** *
  11:Generated_Source\PSoC5/front_right.c **** ********************************************************************************
  12:Generated_Source\PSoC5/front_right.c **** * Copyright 2008-2015, Cypress Semiconductor Corporation.  All rights reserved.
  13:Generated_Source\PSoC5/front_right.c **** * You may use this file only in accordance with the license, terms, conditions, 
  14:Generated_Source\PSoC5/front_right.c **** * disclaimers, and limitations in the end user license agreement accompanying 
  15:Generated_Source\PSoC5/front_right.c **** * the software package with which this file was provided.
  16:Generated_Source\PSoC5/front_right.c **** *******************************************************************************/
  17:Generated_Source\PSoC5/front_right.c **** 
  18:Generated_Source\PSoC5/front_right.c **** 
  19:Generated_Source\PSoC5/front_right.c **** #include <cydevice_trm.h>
  20:Generated_Source\PSoC5/front_right.c **** #include <CyLib.h>
  21:Generated_Source\PSoC5/front_right.c **** #include <front_right.h>
  22:Generated_Source\PSoC5/front_right.c **** 
  23:Generated_Source\PSoC5/front_right.c **** 
  24:Generated_Source\PSoC5/front_right.c **** #if !defined(front_right__REMOVED) /* Check for removal by optimization */
  25:Generated_Source\PSoC5/front_right.c **** 
  26:Generated_Source\PSoC5/front_right.c **** /*******************************************************************************
  27:Generated_Source\PSoC5/front_right.c **** *  Place your includes, defines and code here 
  28:Generated_Source\PSoC5/front_right.c **** ********************************************************************************/
  29:Generated_Source\PSoC5/front_right.c **** /* `#START front_right_intc` */
  30:Generated_Source\PSoC5/front_right.c **** #include "main.h"
ARM GAS  C:\Users\cta10\AppData\Local\Temp\ccmEz0yb.s 			page 2


  31:Generated_Source\PSoC5/front_right.c **** /* `#END` */
  32:Generated_Source\PSoC5/front_right.c **** 
  33:Generated_Source\PSoC5/front_right.c **** #ifndef CYINT_IRQ_BASE
  34:Generated_Source\PSoC5/front_right.c **** #define CYINT_IRQ_BASE      16
  35:Generated_Source\PSoC5/front_right.c **** #endif /* CYINT_IRQ_BASE */
  36:Generated_Source\PSoC5/front_right.c **** #ifndef CYINT_VECT_TABLE
  37:Generated_Source\PSoC5/front_right.c **** #define CYINT_VECT_TABLE    ((cyisraddress **) CYREG_NVIC_VECT_OFFSET)
  38:Generated_Source\PSoC5/front_right.c **** #endif /* CYINT_VECT_TABLE */
  39:Generated_Source\PSoC5/front_right.c **** 
  40:Generated_Source\PSoC5/front_right.c **** /* Declared in startup, used to set unused interrupts to. */
  41:Generated_Source\PSoC5/front_right.c **** CY_ISR_PROTO(IntDefaultHandler);
  42:Generated_Source\PSoC5/front_right.c **** 
  43:Generated_Source\PSoC5/front_right.c **** 
  44:Generated_Source\PSoC5/front_right.c **** /*******************************************************************************
  45:Generated_Source\PSoC5/front_right.c **** * Function Name: front_right_Start
  46:Generated_Source\PSoC5/front_right.c **** ********************************************************************************
  47:Generated_Source\PSoC5/front_right.c **** *
  48:Generated_Source\PSoC5/front_right.c **** * Summary:
  49:Generated_Source\PSoC5/front_right.c **** *  Set up the interrupt and enable it. This function disables the interrupt, 
  50:Generated_Source\PSoC5/front_right.c **** *  sets the default interrupt vector, sets the priority from the value in the
  51:Generated_Source\PSoC5/front_right.c **** *  Design Wide Resources Interrupt Editor, then enables the interrupt to the 
  52:Generated_Source\PSoC5/front_right.c **** *  interrupt controller.
  53:Generated_Source\PSoC5/front_right.c **** *
  54:Generated_Source\PSoC5/front_right.c **** * Parameters:  
  55:Generated_Source\PSoC5/front_right.c **** *   None
  56:Generated_Source\PSoC5/front_right.c **** *
  57:Generated_Source\PSoC5/front_right.c **** * Return:
  58:Generated_Source\PSoC5/front_right.c **** *   None
  59:Generated_Source\PSoC5/front_right.c **** *
  60:Generated_Source\PSoC5/front_right.c **** *******************************************************************************/
  61:Generated_Source\PSoC5/front_right.c **** void front_right_Start(void)
  62:Generated_Source\PSoC5/front_right.c **** {
  28              		.loc 1 62 0
  29              		.cfi_startproc
  30              		@ args = 0, pretend = 0, frame = 0
  31              		@ frame_needed = 1, uses_anonymous_args = 0
  32 0000 80B5     		push	{r7, lr}
  33              		.cfi_def_cfa_offset 8
  34              		.cfi_offset 7, -8
  35              		.cfi_offset 14, -4
  36 0002 00AF     		add	r7, sp, #0
  37              		.cfi_def_cfa_register 7
  63:Generated_Source\PSoC5/front_right.c ****     /* For all we know the interrupt is active. */
  64:Generated_Source\PSoC5/front_right.c ****     front_right_Disable();
  38              		.loc 1 64 0
  39 0004 FFF7FEFF 		bl	front_right_Disable
  65:Generated_Source\PSoC5/front_right.c **** 
  66:Generated_Source\PSoC5/front_right.c ****     /* Set the ISR to point to the front_right Interrupt. */
  67:Generated_Source\PSoC5/front_right.c ****     front_right_SetVector(&front_right_Interrupt);
  40              		.loc 1 67 0
  41 0008 0448     		ldr	r0, .L2
  42 000a FFF7FEFF 		bl	front_right_SetVector
  68:Generated_Source\PSoC5/front_right.c **** 
  69:Generated_Source\PSoC5/front_right.c ****     /* Set the priority. */
  70:Generated_Source\PSoC5/front_right.c ****     front_right_SetPriority((uint8)front_right_INTC_PRIOR_NUMBER);
  43              		.loc 1 70 0
  44 000e 0720     		movs	r0, #7
ARM GAS  C:\Users\cta10\AppData\Local\Temp\ccmEz0yb.s 			page 3


  45 0010 FFF7FEFF 		bl	front_right_SetPriority
  71:Generated_Source\PSoC5/front_right.c **** 
  72:Generated_Source\PSoC5/front_right.c ****     /* Enable it. */
  73:Generated_Source\PSoC5/front_right.c ****     front_right_Enable();
  46              		.loc 1 73 0
  47 0014 FFF7FEFF 		bl	front_right_Enable
  74:Generated_Source\PSoC5/front_right.c **** }
  48              		.loc 1 74 0
  49 0018 00BF     		nop
  50 001a 80BD     		pop	{r7, pc}
  51              	.L3:
  52              		.align	2
  53              	.L2:
  54 001c 00000000 		.word	front_right_Interrupt
  55              		.cfi_endproc
  56              	.LFE63:
  57              		.size	front_right_Start, .-front_right_Start
  58              		.section	.text.front_right_StartEx,"ax",%progbits
  59              		.align	2
  60              		.global	front_right_StartEx
  61              		.thumb
  62              		.thumb_func
  63              		.type	front_right_StartEx, %function
  64              	front_right_StartEx:
  65              	.LFB64:
  75:Generated_Source\PSoC5/front_right.c **** 
  76:Generated_Source\PSoC5/front_right.c **** 
  77:Generated_Source\PSoC5/front_right.c **** /*******************************************************************************
  78:Generated_Source\PSoC5/front_right.c **** * Function Name: front_right_StartEx
  79:Generated_Source\PSoC5/front_right.c **** ********************************************************************************
  80:Generated_Source\PSoC5/front_right.c **** *
  81:Generated_Source\PSoC5/front_right.c **** * Summary:
  82:Generated_Source\PSoC5/front_right.c **** *  Sets up the interrupt and enables it. This function disables the interrupt,
  83:Generated_Source\PSoC5/front_right.c **** *  sets the interrupt vector based on the address passed in, sets the priority 
  84:Generated_Source\PSoC5/front_right.c **** *  from the value in the Design Wide Resources Interrupt Editor, then enables 
  85:Generated_Source\PSoC5/front_right.c **** *  the interrupt to the interrupt controller.
  86:Generated_Source\PSoC5/front_right.c **** *  
  87:Generated_Source\PSoC5/front_right.c **** *  When defining ISR functions, the CY_ISR and CY_ISR_PROTO macros should be 
  88:Generated_Source\PSoC5/front_right.c **** *  used to provide consistent definition across compilers:
  89:Generated_Source\PSoC5/front_right.c **** *  
  90:Generated_Source\PSoC5/front_right.c **** *  Function definition example:
  91:Generated_Source\PSoC5/front_right.c **** *   CY_ISR(MyISR)
  92:Generated_Source\PSoC5/front_right.c **** *   {
  93:Generated_Source\PSoC5/front_right.c **** *   }
  94:Generated_Source\PSoC5/front_right.c **** *   Function prototype example:
  95:Generated_Source\PSoC5/front_right.c **** *   CY_ISR_PROTO(MyISR);
  96:Generated_Source\PSoC5/front_right.c **** *
  97:Generated_Source\PSoC5/front_right.c **** * Parameters:  
  98:Generated_Source\PSoC5/front_right.c **** *   address: Address of the ISR to set in the interrupt vector table.
  99:Generated_Source\PSoC5/front_right.c **** *
 100:Generated_Source\PSoC5/front_right.c **** * Return:
 101:Generated_Source\PSoC5/front_right.c **** *   None
 102:Generated_Source\PSoC5/front_right.c **** *
 103:Generated_Source\PSoC5/front_right.c **** *******************************************************************************/
 104:Generated_Source\PSoC5/front_right.c **** void front_right_StartEx(cyisraddress address)
 105:Generated_Source\PSoC5/front_right.c **** {
  66              		.loc 1 105 0
ARM GAS  C:\Users\cta10\AppData\Local\Temp\ccmEz0yb.s 			page 4


  67              		.cfi_startproc
  68              		@ args = 0, pretend = 0, frame = 8
  69              		@ frame_needed = 1, uses_anonymous_args = 0
  70 0000 80B5     		push	{r7, lr}
  71              		.cfi_def_cfa_offset 8
  72              		.cfi_offset 7, -8
  73              		.cfi_offset 14, -4
  74 0002 82B0     		sub	sp, sp, #8
  75              		.cfi_def_cfa_offset 16
  76 0004 00AF     		add	r7, sp, #0
  77              		.cfi_def_cfa_register 7
  78 0006 7860     		str	r0, [r7, #4]
 106:Generated_Source\PSoC5/front_right.c ****     /* For all we know the interrupt is active. */
 107:Generated_Source\PSoC5/front_right.c ****     front_right_Disable();
  79              		.loc 1 107 0
  80 0008 FFF7FEFF 		bl	front_right_Disable
 108:Generated_Source\PSoC5/front_right.c **** 
 109:Generated_Source\PSoC5/front_right.c ****     /* Set the ISR to point to the front_right Interrupt. */
 110:Generated_Source\PSoC5/front_right.c ****     front_right_SetVector(address);
  81              		.loc 1 110 0
  82 000c 7868     		ldr	r0, [r7, #4]
  83 000e FFF7FEFF 		bl	front_right_SetVector
 111:Generated_Source\PSoC5/front_right.c **** 
 112:Generated_Source\PSoC5/front_right.c ****     /* Set the priority. */
 113:Generated_Source\PSoC5/front_right.c ****     front_right_SetPriority((uint8)front_right_INTC_PRIOR_NUMBER);
  84              		.loc 1 113 0
  85 0012 0720     		movs	r0, #7
  86 0014 FFF7FEFF 		bl	front_right_SetPriority
 114:Generated_Source\PSoC5/front_right.c **** 
 115:Generated_Source\PSoC5/front_right.c ****     /* Enable it. */
 116:Generated_Source\PSoC5/front_right.c ****     front_right_Enable();
  87              		.loc 1 116 0
  88 0018 FFF7FEFF 		bl	front_right_Enable
 117:Generated_Source\PSoC5/front_right.c **** }
  89              		.loc 1 117 0
  90 001c 00BF     		nop
  91 001e 0837     		adds	r7, r7, #8
  92              		.cfi_def_cfa_offset 8
  93 0020 BD46     		mov	sp, r7
  94              		.cfi_def_cfa_register 13
  95              		@ sp needed
  96 0022 80BD     		pop	{r7, pc}
  97              		.cfi_endproc
  98              	.LFE64:
  99              		.size	front_right_StartEx, .-front_right_StartEx
 100              		.section	.text.front_right_Stop,"ax",%progbits
 101              		.align	2
 102              		.global	front_right_Stop
 103              		.thumb
 104              		.thumb_func
 105              		.type	front_right_Stop, %function
 106              	front_right_Stop:
 107              	.LFB65:
 118:Generated_Source\PSoC5/front_right.c **** 
 119:Generated_Source\PSoC5/front_right.c **** 
 120:Generated_Source\PSoC5/front_right.c **** /*******************************************************************************
 121:Generated_Source\PSoC5/front_right.c **** * Function Name: front_right_Stop
ARM GAS  C:\Users\cta10\AppData\Local\Temp\ccmEz0yb.s 			page 5


 122:Generated_Source\PSoC5/front_right.c **** ********************************************************************************
 123:Generated_Source\PSoC5/front_right.c **** *
 124:Generated_Source\PSoC5/front_right.c **** * Summary:
 125:Generated_Source\PSoC5/front_right.c **** *   Disables and removes the interrupt.
 126:Generated_Source\PSoC5/front_right.c **** *
 127:Generated_Source\PSoC5/front_right.c **** * Parameters:  
 128:Generated_Source\PSoC5/front_right.c **** *   None
 129:Generated_Source\PSoC5/front_right.c **** *
 130:Generated_Source\PSoC5/front_right.c **** * Return:
 131:Generated_Source\PSoC5/front_right.c **** *   None
 132:Generated_Source\PSoC5/front_right.c **** *
 133:Generated_Source\PSoC5/front_right.c **** *******************************************************************************/
 134:Generated_Source\PSoC5/front_right.c **** void front_right_Stop(void)
 135:Generated_Source\PSoC5/front_right.c **** {
 108              		.loc 1 135 0
 109              		.cfi_startproc
 110              		@ args = 0, pretend = 0, frame = 0
 111              		@ frame_needed = 1, uses_anonymous_args = 0
 112 0000 80B5     		push	{r7, lr}
 113              		.cfi_def_cfa_offset 8
 114              		.cfi_offset 7, -8
 115              		.cfi_offset 14, -4
 116 0002 00AF     		add	r7, sp, #0
 117              		.cfi_def_cfa_register 7
 136:Generated_Source\PSoC5/front_right.c ****     /* Disable this interrupt. */
 137:Generated_Source\PSoC5/front_right.c ****     front_right_Disable();
 118              		.loc 1 137 0
 119 0004 FFF7FEFF 		bl	front_right_Disable
 138:Generated_Source\PSoC5/front_right.c **** 
 139:Generated_Source\PSoC5/front_right.c ****     /* Set the ISR to point to the passive one. */
 140:Generated_Source\PSoC5/front_right.c ****     front_right_SetVector(&IntDefaultHandler);
 120              		.loc 1 140 0
 121 0008 0248     		ldr	r0, .L6
 122 000a FFF7FEFF 		bl	front_right_SetVector
 141:Generated_Source\PSoC5/front_right.c **** }
 123              		.loc 1 141 0
 124 000e 00BF     		nop
 125 0010 80BD     		pop	{r7, pc}
 126              	.L7:
 127 0012 00BF     		.align	2
 128              	.L6:
 129 0014 00000000 		.word	IntDefaultHandler
 130              		.cfi_endproc
 131              	.LFE65:
 132              		.size	front_right_Stop, .-front_right_Stop
 133              		.section	.text.front_right_Interrupt,"ax",%progbits
 134              		.align	2
 135              		.global	front_right_Interrupt
 136              		.thumb
 137              		.thumb_func
 138              		.type	front_right_Interrupt, %function
 139              	front_right_Interrupt:
 140              	.LFB66:
 142:Generated_Source\PSoC5/front_right.c **** 
 143:Generated_Source\PSoC5/front_right.c **** 
 144:Generated_Source\PSoC5/front_right.c **** /*******************************************************************************
 145:Generated_Source\PSoC5/front_right.c **** * Function Name: front_right_Interrupt
ARM GAS  C:\Users\cta10\AppData\Local\Temp\ccmEz0yb.s 			page 6


 146:Generated_Source\PSoC5/front_right.c **** ********************************************************************************
 147:Generated_Source\PSoC5/front_right.c **** *
 148:Generated_Source\PSoC5/front_right.c **** * Summary:
 149:Generated_Source\PSoC5/front_right.c **** *   The default Interrupt Service Routine for front_right.
 150:Generated_Source\PSoC5/front_right.c **** *
 151:Generated_Source\PSoC5/front_right.c **** *   Add custom code between the coments to keep the next version of this file
 152:Generated_Source\PSoC5/front_right.c **** *   from over writting your code.
 153:Generated_Source\PSoC5/front_right.c **** *
 154:Generated_Source\PSoC5/front_right.c **** * Parameters:  
 155:Generated_Source\PSoC5/front_right.c **** *
 156:Generated_Source\PSoC5/front_right.c **** * Return:
 157:Generated_Source\PSoC5/front_right.c **** *   None
 158:Generated_Source\PSoC5/front_right.c **** *
 159:Generated_Source\PSoC5/front_right.c **** *******************************************************************************/
 160:Generated_Source\PSoC5/front_right.c **** CY_ISR(front_right_Interrupt)
 161:Generated_Source\PSoC5/front_right.c **** {
 141              		.loc 1 161 0
 142              		.cfi_startproc
 143              		@ args = 0, pretend = 0, frame = 0
 144              		@ frame_needed = 1, uses_anonymous_args = 0
 145              		@ link register save eliminated.
 146 0000 80B4     		push	{r7}
 147              		.cfi_def_cfa_offset 4
 148              		.cfi_offset 7, -4
 149 0002 00AF     		add	r7, sp, #0
 150              		.cfi_def_cfa_register 7
 162:Generated_Source\PSoC5/front_right.c ****     #ifdef front_right_INTERRUPT_INTERRUPT_CALLBACK
 163:Generated_Source\PSoC5/front_right.c ****         front_right_Interrupt_InterruptCallback();
 164:Generated_Source\PSoC5/front_right.c ****     #endif /* front_right_INTERRUPT_INTERRUPT_CALLBACK */ 
 165:Generated_Source\PSoC5/front_right.c **** 
 166:Generated_Source\PSoC5/front_right.c ****     /*  Place your Interrupt code here. */
 167:Generated_Source\PSoC5/front_right.c ****     /* `#START front_right_Interrupt` */
 168:Generated_Source\PSoC5/front_right.c ****     edges.front_right_edge = 1;
 151              		.loc 1 168 0
 152 0004 034B     		ldr	r3, .L9
 153 0006 0122     		movs	r2, #1
 154 0008 5A70     		strb	r2, [r3, #1]
 169:Generated_Source\PSoC5/front_right.c **** 
 170:Generated_Source\PSoC5/front_right.c ****     /* `#END` */
 171:Generated_Source\PSoC5/front_right.c **** }
 155              		.loc 1 171 0
 156 000a 00BF     		nop
 157 000c BD46     		mov	sp, r7
 158              		.cfi_def_cfa_register 13
 159              		@ sp needed
 160 000e 80BC     		pop	{r7}
 161              		.cfi_restore 7
 162              		.cfi_def_cfa_offset 0
 163 0010 7047     		bx	lr
 164              	.L10:
 165 0012 00BF     		.align	2
 166              	.L9:
 167 0014 00000000 		.word	edges
 168              		.cfi_endproc
 169              	.LFE66:
 170              		.size	front_right_Interrupt, .-front_right_Interrupt
 171              		.section	.text.front_right_SetVector,"ax",%progbits
ARM GAS  C:\Users\cta10\AppData\Local\Temp\ccmEz0yb.s 			page 7


 172              		.align	2
 173              		.global	front_right_SetVector
 174              		.thumb
 175              		.thumb_func
 176              		.type	front_right_SetVector, %function
 177              	front_right_SetVector:
 178              	.LFB67:
 172:Generated_Source\PSoC5/front_right.c **** 
 173:Generated_Source\PSoC5/front_right.c **** 
 174:Generated_Source\PSoC5/front_right.c **** /*******************************************************************************
 175:Generated_Source\PSoC5/front_right.c **** * Function Name: front_right_SetVector
 176:Generated_Source\PSoC5/front_right.c **** ********************************************************************************
 177:Generated_Source\PSoC5/front_right.c **** *
 178:Generated_Source\PSoC5/front_right.c **** * Summary:
 179:Generated_Source\PSoC5/front_right.c **** *   Change the ISR vector for the Interrupt. Note calling front_right_Start
 180:Generated_Source\PSoC5/front_right.c **** *   will override any effect this method would have had. To set the vector 
 181:Generated_Source\PSoC5/front_right.c **** *   before the component has been started use front_right_StartEx instead.
 182:Generated_Source\PSoC5/front_right.c **** * 
 183:Generated_Source\PSoC5/front_right.c **** *   When defining ISR functions, the CY_ISR and CY_ISR_PROTO macros should be 
 184:Generated_Source\PSoC5/front_right.c **** *   used to provide consistent definition across compilers:
 185:Generated_Source\PSoC5/front_right.c **** *
 186:Generated_Source\PSoC5/front_right.c **** *   Function definition example:
 187:Generated_Source\PSoC5/front_right.c **** *   CY_ISR(MyISR)
 188:Generated_Source\PSoC5/front_right.c **** *   {
 189:Generated_Source\PSoC5/front_right.c **** *   }
 190:Generated_Source\PSoC5/front_right.c **** *
 191:Generated_Source\PSoC5/front_right.c **** *   Function prototype example:
 192:Generated_Source\PSoC5/front_right.c **** *     CY_ISR_PROTO(MyISR);
 193:Generated_Source\PSoC5/front_right.c **** *
 194:Generated_Source\PSoC5/front_right.c **** * Parameters:
 195:Generated_Source\PSoC5/front_right.c **** *   address: Address of the ISR to set in the interrupt vector table.
 196:Generated_Source\PSoC5/front_right.c **** *
 197:Generated_Source\PSoC5/front_right.c **** * Return:
 198:Generated_Source\PSoC5/front_right.c **** *   None
 199:Generated_Source\PSoC5/front_right.c **** *
 200:Generated_Source\PSoC5/front_right.c **** *******************************************************************************/
 201:Generated_Source\PSoC5/front_right.c **** void front_right_SetVector(cyisraddress address)
 202:Generated_Source\PSoC5/front_right.c **** {
 179              		.loc 1 202 0
 180              		.cfi_startproc
 181              		@ args = 0, pretend = 0, frame = 16
 182              		@ frame_needed = 1, uses_anonymous_args = 0
 183              		@ link register save eliminated.
 184 0000 80B4     		push	{r7}
 185              		.cfi_def_cfa_offset 4
 186              		.cfi_offset 7, -4
 187 0002 85B0     		sub	sp, sp, #20
 188              		.cfi_def_cfa_offset 24
 189 0004 00AF     		add	r7, sp, #0
 190              		.cfi_def_cfa_register 7
 191 0006 7860     		str	r0, [r7, #4]
 203:Generated_Source\PSoC5/front_right.c ****     cyisraddress * ramVectorTable;
 204:Generated_Source\PSoC5/front_right.c **** 
 205:Generated_Source\PSoC5/front_right.c ****     ramVectorTable = (cyisraddress *) *CYINT_VECT_TABLE;
 192              		.loc 1 205 0
 193 0008 054B     		ldr	r3, .L12
 194 000a 1B68     		ldr	r3, [r3]
ARM GAS  C:\Users\cta10\AppData\Local\Temp\ccmEz0yb.s 			page 8


 195 000c FB60     		str	r3, [r7, #12]
 206:Generated_Source\PSoC5/front_right.c **** 
 207:Generated_Source\PSoC5/front_right.c ****     ramVectorTable[CYINT_IRQ_BASE + (uint32)front_right__INTC_NUMBER] = address;
 196              		.loc 1 207 0
 197 000e FB68     		ldr	r3, [r7, #12]
 198 0010 5033     		adds	r3, r3, #80
 199 0012 7A68     		ldr	r2, [r7, #4]
 200 0014 1A60     		str	r2, [r3]
 208:Generated_Source\PSoC5/front_right.c **** }
 201              		.loc 1 208 0
 202 0016 00BF     		nop
 203 0018 1437     		adds	r7, r7, #20
 204              		.cfi_def_cfa_offset 4
 205 001a BD46     		mov	sp, r7
 206              		.cfi_def_cfa_register 13
 207              		@ sp needed
 208 001c 80BC     		pop	{r7}
 209              		.cfi_restore 7
 210              		.cfi_def_cfa_offset 0
 211 001e 7047     		bx	lr
 212              	.L13:
 213              		.align	2
 214              	.L12:
 215 0020 08ED00E0 		.word	-536810232
 216              		.cfi_endproc
 217              	.LFE67:
 218              		.size	front_right_SetVector, .-front_right_SetVector
 219              		.section	.text.front_right_GetVector,"ax",%progbits
 220              		.align	2
 221              		.global	front_right_GetVector
 222              		.thumb
 223              		.thumb_func
 224              		.type	front_right_GetVector, %function
 225              	front_right_GetVector:
 226              	.LFB68:
 209:Generated_Source\PSoC5/front_right.c **** 
 210:Generated_Source\PSoC5/front_right.c **** 
 211:Generated_Source\PSoC5/front_right.c **** /*******************************************************************************
 212:Generated_Source\PSoC5/front_right.c **** * Function Name: front_right_GetVector
 213:Generated_Source\PSoC5/front_right.c **** ********************************************************************************
 214:Generated_Source\PSoC5/front_right.c **** *
 215:Generated_Source\PSoC5/front_right.c **** * Summary:
 216:Generated_Source\PSoC5/front_right.c **** *   Gets the "address" of the current ISR vector for the Interrupt.
 217:Generated_Source\PSoC5/front_right.c **** *
 218:Generated_Source\PSoC5/front_right.c **** * Parameters:
 219:Generated_Source\PSoC5/front_right.c **** *   None
 220:Generated_Source\PSoC5/front_right.c **** *
 221:Generated_Source\PSoC5/front_right.c **** * Return:
 222:Generated_Source\PSoC5/front_right.c **** *   Address of the ISR in the interrupt vector table.
 223:Generated_Source\PSoC5/front_right.c **** *
 224:Generated_Source\PSoC5/front_right.c **** *******************************************************************************/
 225:Generated_Source\PSoC5/front_right.c **** cyisraddress front_right_GetVector(void)
 226:Generated_Source\PSoC5/front_right.c **** {
 227              		.loc 1 226 0
 228              		.cfi_startproc
 229              		@ args = 0, pretend = 0, frame = 8
 230              		@ frame_needed = 1, uses_anonymous_args = 0
ARM GAS  C:\Users\cta10\AppData\Local\Temp\ccmEz0yb.s 			page 9


 231              		@ link register save eliminated.
 232 0000 80B4     		push	{r7}
 233              		.cfi_def_cfa_offset 4
 234              		.cfi_offset 7, -4
 235 0002 83B0     		sub	sp, sp, #12
 236              		.cfi_def_cfa_offset 16
 237 0004 00AF     		add	r7, sp, #0
 238              		.cfi_def_cfa_register 7
 227:Generated_Source\PSoC5/front_right.c ****     cyisraddress * ramVectorTable;
 228:Generated_Source\PSoC5/front_right.c **** 
 229:Generated_Source\PSoC5/front_right.c ****     ramVectorTable = (cyisraddress *) *CYINT_VECT_TABLE;
 239              		.loc 1 229 0
 240 0006 054B     		ldr	r3, .L16
 241 0008 1B68     		ldr	r3, [r3]
 242 000a 7B60     		str	r3, [r7, #4]
 230:Generated_Source\PSoC5/front_right.c **** 
 231:Generated_Source\PSoC5/front_right.c ****     return ramVectorTable[CYINT_IRQ_BASE + (uint32)front_right__INTC_NUMBER];
 243              		.loc 1 231 0
 244 000c 7B68     		ldr	r3, [r7, #4]
 245 000e 1B6D     		ldr	r3, [r3, #80]
 232:Generated_Source\PSoC5/front_right.c **** }
 246              		.loc 1 232 0
 247 0010 1846     		mov	r0, r3
 248 0012 0C37     		adds	r7, r7, #12
 249              		.cfi_def_cfa_offset 4
 250 0014 BD46     		mov	sp, r7
 251              		.cfi_def_cfa_register 13
 252              		@ sp needed
 253 0016 80BC     		pop	{r7}
 254              		.cfi_restore 7
 255              		.cfi_def_cfa_offset 0
 256 0018 7047     		bx	lr
 257              	.L17:
 258 001a 00BF     		.align	2
 259              	.L16:
 260 001c 08ED00E0 		.word	-536810232
 261              		.cfi_endproc
 262              	.LFE68:
 263              		.size	front_right_GetVector, .-front_right_GetVector
 264              		.section	.text.front_right_SetPriority,"ax",%progbits
 265              		.align	2
 266              		.global	front_right_SetPriority
 267              		.thumb
 268              		.thumb_func
 269              		.type	front_right_SetPriority, %function
 270              	front_right_SetPriority:
 271              	.LFB69:
 233:Generated_Source\PSoC5/front_right.c **** 
 234:Generated_Source\PSoC5/front_right.c **** 
 235:Generated_Source\PSoC5/front_right.c **** /*******************************************************************************
 236:Generated_Source\PSoC5/front_right.c **** * Function Name: front_right_SetPriority
 237:Generated_Source\PSoC5/front_right.c **** ********************************************************************************
 238:Generated_Source\PSoC5/front_right.c **** *
 239:Generated_Source\PSoC5/front_right.c **** * Summary:
 240:Generated_Source\PSoC5/front_right.c **** *   Sets the Priority of the Interrupt. 
 241:Generated_Source\PSoC5/front_right.c **** *
 242:Generated_Source\PSoC5/front_right.c **** *   Note calling front_right_Start or front_right_StartEx will 
ARM GAS  C:\Users\cta10\AppData\Local\Temp\ccmEz0yb.s 			page 10


 243:Generated_Source\PSoC5/front_right.c **** *   override any effect this API would have had. This API should only be called
 244:Generated_Source\PSoC5/front_right.c **** *   after front_right_Start or front_right_StartEx has been called. 
 245:Generated_Source\PSoC5/front_right.c **** *   To set the initial priority for the component, use the Design-Wide Resources
 246:Generated_Source\PSoC5/front_right.c **** *   Interrupt Editor.
 247:Generated_Source\PSoC5/front_right.c **** *
 248:Generated_Source\PSoC5/front_right.c **** *   Note This API has no effect on Non-maskable interrupt NMI).
 249:Generated_Source\PSoC5/front_right.c **** *
 250:Generated_Source\PSoC5/front_right.c **** * Parameters:
 251:Generated_Source\PSoC5/front_right.c **** *   priority: Priority of the interrupt, 0 being the highest priority
 252:Generated_Source\PSoC5/front_right.c **** *             PSoC 3 and PSoC 5LP: Priority is from 0 to 7.
 253:Generated_Source\PSoC5/front_right.c **** *             PSoC 4: Priority is from 0 to 3.
 254:Generated_Source\PSoC5/front_right.c **** *
 255:Generated_Source\PSoC5/front_right.c **** * Return:
 256:Generated_Source\PSoC5/front_right.c **** *   None
 257:Generated_Source\PSoC5/front_right.c **** *
 258:Generated_Source\PSoC5/front_right.c **** *******************************************************************************/
 259:Generated_Source\PSoC5/front_right.c **** void front_right_SetPriority(uint8 priority)
 260:Generated_Source\PSoC5/front_right.c **** {
 272              		.loc 1 260 0
 273              		.cfi_startproc
 274              		@ args = 0, pretend = 0, frame = 8
 275              		@ frame_needed = 1, uses_anonymous_args = 0
 276              		@ link register save eliminated.
 277 0000 80B4     		push	{r7}
 278              		.cfi_def_cfa_offset 4
 279              		.cfi_offset 7, -4
 280 0002 83B0     		sub	sp, sp, #12
 281              		.cfi_def_cfa_offset 16
 282 0004 00AF     		add	r7, sp, #0
 283              		.cfi_def_cfa_register 7
 284 0006 0346     		mov	r3, r0
 285 0008 FB71     		strb	r3, [r7, #7]
 261:Generated_Source\PSoC5/front_right.c ****     *front_right_INTC_PRIOR = priority << 5;
 286              		.loc 1 261 0
 287 000a 054A     		ldr	r2, .L19
 288 000c FB79     		ldrb	r3, [r7, #7]
 289 000e 5B01     		lsls	r3, r3, #5
 290 0010 DBB2     		uxtb	r3, r3
 291 0012 1370     		strb	r3, [r2]
 262:Generated_Source\PSoC5/front_right.c **** }
 292              		.loc 1 262 0
 293 0014 00BF     		nop
 294 0016 0C37     		adds	r7, r7, #12
 295              		.cfi_def_cfa_offset 4
 296 0018 BD46     		mov	sp, r7
 297              		.cfi_def_cfa_register 13
 298              		@ sp needed
 299 001a 80BC     		pop	{r7}
 300              		.cfi_restore 7
 301              		.cfi_def_cfa_offset 0
 302 001c 7047     		bx	lr
 303              	.L20:
 304 001e 00BF     		.align	2
 305              	.L19:
 306 0020 04E400E0 		.word	-536812540
 307              		.cfi_endproc
 308              	.LFE69:
ARM GAS  C:\Users\cta10\AppData\Local\Temp\ccmEz0yb.s 			page 11


 309              		.size	front_right_SetPriority, .-front_right_SetPriority
 310              		.section	.text.front_right_GetPriority,"ax",%progbits
 311              		.align	2
 312              		.global	front_right_GetPriority
 313              		.thumb
 314              		.thumb_func
 315              		.type	front_right_GetPriority, %function
 316              	front_right_GetPriority:
 317              	.LFB70:
 263:Generated_Source\PSoC5/front_right.c **** 
 264:Generated_Source\PSoC5/front_right.c **** 
 265:Generated_Source\PSoC5/front_right.c **** /*******************************************************************************
 266:Generated_Source\PSoC5/front_right.c **** * Function Name: front_right_GetPriority
 267:Generated_Source\PSoC5/front_right.c **** ********************************************************************************
 268:Generated_Source\PSoC5/front_right.c **** *
 269:Generated_Source\PSoC5/front_right.c **** * Summary:
 270:Generated_Source\PSoC5/front_right.c **** *   Gets the Priority of the Interrupt.
 271:Generated_Source\PSoC5/front_right.c **** *
 272:Generated_Source\PSoC5/front_right.c **** * Parameters:
 273:Generated_Source\PSoC5/front_right.c **** *   None
 274:Generated_Source\PSoC5/front_right.c **** *
 275:Generated_Source\PSoC5/front_right.c **** * Return:
 276:Generated_Source\PSoC5/front_right.c **** *   Priority of the interrupt, 0 being the highest priority
 277:Generated_Source\PSoC5/front_right.c **** *    PSoC 3 and PSoC 5LP: Priority is from 0 to 7.
 278:Generated_Source\PSoC5/front_right.c **** *    PSoC 4: Priority is from 0 to 3.
 279:Generated_Source\PSoC5/front_right.c **** *
 280:Generated_Source\PSoC5/front_right.c **** *******************************************************************************/
 281:Generated_Source\PSoC5/front_right.c **** uint8 front_right_GetPriority(void)
 282:Generated_Source\PSoC5/front_right.c **** {
 318              		.loc 1 282 0
 319              		.cfi_startproc
 320              		@ args = 0, pretend = 0, frame = 8
 321              		@ frame_needed = 1, uses_anonymous_args = 0
 322              		@ link register save eliminated.
 323 0000 80B4     		push	{r7}
 324              		.cfi_def_cfa_offset 4
 325              		.cfi_offset 7, -4
 326 0002 83B0     		sub	sp, sp, #12
 327              		.cfi_def_cfa_offset 16
 328 0004 00AF     		add	r7, sp, #0
 329              		.cfi_def_cfa_register 7
 283:Generated_Source\PSoC5/front_right.c ****     uint8 priority;
 284:Generated_Source\PSoC5/front_right.c **** 
 285:Generated_Source\PSoC5/front_right.c **** 
 286:Generated_Source\PSoC5/front_right.c ****     priority = *front_right_INTC_PRIOR >> 5;
 330              		.loc 1 286 0
 331 0006 054B     		ldr	r3, .L23
 332 0008 1B78     		ldrb	r3, [r3]
 333 000a DBB2     		uxtb	r3, r3
 334 000c 5B09     		lsrs	r3, r3, #5
 335 000e FB71     		strb	r3, [r7, #7]
 287:Generated_Source\PSoC5/front_right.c **** 
 288:Generated_Source\PSoC5/front_right.c ****     return priority;
 336              		.loc 1 288 0
 337 0010 FB79     		ldrb	r3, [r7, #7]	@ zero_extendqisi2
 289:Generated_Source\PSoC5/front_right.c **** }
 338              		.loc 1 289 0
ARM GAS  C:\Users\cta10\AppData\Local\Temp\ccmEz0yb.s 			page 12


 339 0012 1846     		mov	r0, r3
 340 0014 0C37     		adds	r7, r7, #12
 341              		.cfi_def_cfa_offset 4
 342 0016 BD46     		mov	sp, r7
 343              		.cfi_def_cfa_register 13
 344              		@ sp needed
 345 0018 80BC     		pop	{r7}
 346              		.cfi_restore 7
 347              		.cfi_def_cfa_offset 0
 348 001a 7047     		bx	lr
 349              	.L24:
 350              		.align	2
 351              	.L23:
 352 001c 04E400E0 		.word	-536812540
 353              		.cfi_endproc
 354              	.LFE70:
 355              		.size	front_right_GetPriority, .-front_right_GetPriority
 356              		.section	.text.front_right_Enable,"ax",%progbits
 357              		.align	2
 358              		.global	front_right_Enable
 359              		.thumb
 360              		.thumb_func
 361              		.type	front_right_Enable, %function
 362              	front_right_Enable:
 363              	.LFB71:
 290:Generated_Source\PSoC5/front_right.c **** 
 291:Generated_Source\PSoC5/front_right.c **** 
 292:Generated_Source\PSoC5/front_right.c **** /*******************************************************************************
 293:Generated_Source\PSoC5/front_right.c **** * Function Name: front_right_Enable
 294:Generated_Source\PSoC5/front_right.c **** ********************************************************************************
 295:Generated_Source\PSoC5/front_right.c **** *
 296:Generated_Source\PSoC5/front_right.c **** * Summary:
 297:Generated_Source\PSoC5/front_right.c **** *   Enables the interrupt to the interrupt controller. Do not call this function
 298:Generated_Source\PSoC5/front_right.c **** *   unless ISR_Start() has been called or the functionality of the ISR_Start() 
 299:Generated_Source\PSoC5/front_right.c **** *   function, which sets the vector and the priority, has been called.
 300:Generated_Source\PSoC5/front_right.c **** *
 301:Generated_Source\PSoC5/front_right.c **** * Parameters:
 302:Generated_Source\PSoC5/front_right.c **** *   None
 303:Generated_Source\PSoC5/front_right.c **** *
 304:Generated_Source\PSoC5/front_right.c **** * Return:
 305:Generated_Source\PSoC5/front_right.c **** *   None
 306:Generated_Source\PSoC5/front_right.c **** *
 307:Generated_Source\PSoC5/front_right.c **** *******************************************************************************/
 308:Generated_Source\PSoC5/front_right.c **** void front_right_Enable(void)
 309:Generated_Source\PSoC5/front_right.c **** {
 364              		.loc 1 309 0
 365              		.cfi_startproc
 366              		@ args = 0, pretend = 0, frame = 0
 367              		@ frame_needed = 1, uses_anonymous_args = 0
 368              		@ link register save eliminated.
 369 0000 80B4     		push	{r7}
 370              		.cfi_def_cfa_offset 4
 371              		.cfi_offset 7, -4
 372 0002 00AF     		add	r7, sp, #0
 373              		.cfi_def_cfa_register 7
 310:Generated_Source\PSoC5/front_right.c ****     /* Enable the general interrupt. */
 311:Generated_Source\PSoC5/front_right.c ****     *front_right_INTC_SET_EN = front_right__INTC_MASK;
ARM GAS  C:\Users\cta10\AppData\Local\Temp\ccmEz0yb.s 			page 13


 374              		.loc 1 311 0
 375 0004 034B     		ldr	r3, .L26
 376 0006 1022     		movs	r2, #16
 377 0008 1A60     		str	r2, [r3]
 312:Generated_Source\PSoC5/front_right.c **** }
 378              		.loc 1 312 0
 379 000a 00BF     		nop
 380 000c BD46     		mov	sp, r7
 381              		.cfi_def_cfa_register 13
 382              		@ sp needed
 383 000e 80BC     		pop	{r7}
 384              		.cfi_restore 7
 385              		.cfi_def_cfa_offset 0
 386 0010 7047     		bx	lr
 387              	.L27:
 388 0012 00BF     		.align	2
 389              	.L26:
 390 0014 00E100E0 		.word	-536813312
 391              		.cfi_endproc
 392              	.LFE71:
 393              		.size	front_right_Enable, .-front_right_Enable
 394              		.section	.text.front_right_GetState,"ax",%progbits
 395              		.align	2
 396              		.global	front_right_GetState
 397              		.thumb
 398              		.thumb_func
 399              		.type	front_right_GetState, %function
 400              	front_right_GetState:
 401              	.LFB72:
 313:Generated_Source\PSoC5/front_right.c **** 
 314:Generated_Source\PSoC5/front_right.c **** 
 315:Generated_Source\PSoC5/front_right.c **** /*******************************************************************************
 316:Generated_Source\PSoC5/front_right.c **** * Function Name: front_right_GetState
 317:Generated_Source\PSoC5/front_right.c **** ********************************************************************************
 318:Generated_Source\PSoC5/front_right.c **** *
 319:Generated_Source\PSoC5/front_right.c **** * Summary:
 320:Generated_Source\PSoC5/front_right.c **** *   Gets the state (enabled, disabled) of the Interrupt.
 321:Generated_Source\PSoC5/front_right.c **** *
 322:Generated_Source\PSoC5/front_right.c **** * Parameters:
 323:Generated_Source\PSoC5/front_right.c **** *   None
 324:Generated_Source\PSoC5/front_right.c **** *
 325:Generated_Source\PSoC5/front_right.c **** * Return:
 326:Generated_Source\PSoC5/front_right.c **** *   1 if enabled, 0 if disabled.
 327:Generated_Source\PSoC5/front_right.c **** *
 328:Generated_Source\PSoC5/front_right.c **** *******************************************************************************/
 329:Generated_Source\PSoC5/front_right.c **** uint8 front_right_GetState(void)
 330:Generated_Source\PSoC5/front_right.c **** {
 402              		.loc 1 330 0
 403              		.cfi_startproc
 404              		@ args = 0, pretend = 0, frame = 0
 405              		@ frame_needed = 1, uses_anonymous_args = 0
 406              		@ link register save eliminated.
 407 0000 80B4     		push	{r7}
 408              		.cfi_def_cfa_offset 4
 409              		.cfi_offset 7, -4
 410 0002 00AF     		add	r7, sp, #0
 411              		.cfi_def_cfa_register 7
ARM GAS  C:\Users\cta10\AppData\Local\Temp\ccmEz0yb.s 			page 14


 331:Generated_Source\PSoC5/front_right.c ****     /* Get the state of the general interrupt. */
 332:Generated_Source\PSoC5/front_right.c ****     return ((*front_right_INTC_SET_EN & (uint32)front_right__INTC_MASK) != 0u) ? 1u:0u;
 412              		.loc 1 332 0
 413 0004 064B     		ldr	r3, .L32
 414 0006 1B68     		ldr	r3, [r3]
 415 0008 03F01003 		and	r3, r3, #16
 416 000c 002B     		cmp	r3, #0
 417 000e 01D0     		beq	.L29
 418              		.loc 1 332 0 is_stmt 0 discriminator 1
 419 0010 0123     		movs	r3, #1
 420 0012 00E0     		b	.L30
 421              	.L29:
 422              		.loc 1 332 0 discriminator 2
 423 0014 0023     		movs	r3, #0
 424              	.L30:
 333:Generated_Source\PSoC5/front_right.c **** }
 425              		.loc 1 333 0 is_stmt 1 discriminator 4
 426 0016 1846     		mov	r0, r3
 427 0018 BD46     		mov	sp, r7
 428              		.cfi_def_cfa_register 13
 429              		@ sp needed
 430 001a 80BC     		pop	{r7}
 431              		.cfi_restore 7
 432              		.cfi_def_cfa_offset 0
 433 001c 7047     		bx	lr
 434              	.L33:
 435 001e 00BF     		.align	2
 436              	.L32:
 437 0020 00E100E0 		.word	-536813312
 438              		.cfi_endproc
 439              	.LFE72:
 440              		.size	front_right_GetState, .-front_right_GetState
 441              		.section	.text.front_right_Disable,"ax",%progbits
 442              		.align	2
 443              		.global	front_right_Disable
 444              		.thumb
 445              		.thumb_func
 446              		.type	front_right_Disable, %function
 447              	front_right_Disable:
 448              	.LFB73:
 334:Generated_Source\PSoC5/front_right.c **** 
 335:Generated_Source\PSoC5/front_right.c **** 
 336:Generated_Source\PSoC5/front_right.c **** /*******************************************************************************
 337:Generated_Source\PSoC5/front_right.c **** * Function Name: front_right_Disable
 338:Generated_Source\PSoC5/front_right.c **** ********************************************************************************
 339:Generated_Source\PSoC5/front_right.c **** *
 340:Generated_Source\PSoC5/front_right.c **** * Summary:
 341:Generated_Source\PSoC5/front_right.c **** *   Disables the Interrupt in the interrupt controller.
 342:Generated_Source\PSoC5/front_right.c **** *
 343:Generated_Source\PSoC5/front_right.c **** * Parameters:
 344:Generated_Source\PSoC5/front_right.c **** *   None
 345:Generated_Source\PSoC5/front_right.c **** *
 346:Generated_Source\PSoC5/front_right.c **** * Return:
 347:Generated_Source\PSoC5/front_right.c **** *   None
 348:Generated_Source\PSoC5/front_right.c **** *
 349:Generated_Source\PSoC5/front_right.c **** *******************************************************************************/
 350:Generated_Source\PSoC5/front_right.c **** void front_right_Disable(void)
ARM GAS  C:\Users\cta10\AppData\Local\Temp\ccmEz0yb.s 			page 15


 351:Generated_Source\PSoC5/front_right.c **** {
 449              		.loc 1 351 0
 450              		.cfi_startproc
 451              		@ args = 0, pretend = 0, frame = 0
 452              		@ frame_needed = 1, uses_anonymous_args = 0
 453              		@ link register save eliminated.
 454 0000 80B4     		push	{r7}
 455              		.cfi_def_cfa_offset 4
 456              		.cfi_offset 7, -4
 457 0002 00AF     		add	r7, sp, #0
 458              		.cfi_def_cfa_register 7
 352:Generated_Source\PSoC5/front_right.c ****     /* Disable the general interrupt. */
 353:Generated_Source\PSoC5/front_right.c ****     *front_right_INTC_CLR_EN = front_right__INTC_MASK;
 459              		.loc 1 353 0
 460 0004 034B     		ldr	r3, .L35
 461 0006 1022     		movs	r2, #16
 462 0008 1A60     		str	r2, [r3]
 354:Generated_Source\PSoC5/front_right.c **** }
 463              		.loc 1 354 0
 464 000a 00BF     		nop
 465 000c BD46     		mov	sp, r7
 466              		.cfi_def_cfa_register 13
 467              		@ sp needed
 468 000e 80BC     		pop	{r7}
 469              		.cfi_restore 7
 470              		.cfi_def_cfa_offset 0
 471 0010 7047     		bx	lr
 472              	.L36:
 473 0012 00BF     		.align	2
 474              	.L35:
 475 0014 80E100E0 		.word	-536813184
 476              		.cfi_endproc
 477              	.LFE73:
 478              		.size	front_right_Disable, .-front_right_Disable
 479              		.section	.text.front_right_SetPending,"ax",%progbits
 480              		.align	2
 481              		.global	front_right_SetPending
 482              		.thumb
 483              		.thumb_func
 484              		.type	front_right_SetPending, %function
 485              	front_right_SetPending:
 486              	.LFB74:
 355:Generated_Source\PSoC5/front_right.c **** 
 356:Generated_Source\PSoC5/front_right.c **** 
 357:Generated_Source\PSoC5/front_right.c **** /*******************************************************************************
 358:Generated_Source\PSoC5/front_right.c **** * Function Name: front_right_SetPending
 359:Generated_Source\PSoC5/front_right.c **** ********************************************************************************
 360:Generated_Source\PSoC5/front_right.c **** *
 361:Generated_Source\PSoC5/front_right.c **** * Summary:
 362:Generated_Source\PSoC5/front_right.c **** *   Causes the Interrupt to enter the pending state, a software method of
 363:Generated_Source\PSoC5/front_right.c **** *   generating the interrupt.
 364:Generated_Source\PSoC5/front_right.c **** *
 365:Generated_Source\PSoC5/front_right.c **** * Parameters:
 366:Generated_Source\PSoC5/front_right.c **** *   None
 367:Generated_Source\PSoC5/front_right.c **** *
 368:Generated_Source\PSoC5/front_right.c **** * Return:
 369:Generated_Source\PSoC5/front_right.c **** *   None
ARM GAS  C:\Users\cta10\AppData\Local\Temp\ccmEz0yb.s 			page 16


 370:Generated_Source\PSoC5/front_right.c **** *
 371:Generated_Source\PSoC5/front_right.c **** * Side Effects:
 372:Generated_Source\PSoC5/front_right.c **** *   If interrupts are enabled and the interrupt is set up properly, the ISR is
 373:Generated_Source\PSoC5/front_right.c **** *   entered (depending on the priority of this interrupt and other pending 
 374:Generated_Source\PSoC5/front_right.c **** *   interrupts).
 375:Generated_Source\PSoC5/front_right.c **** *
 376:Generated_Source\PSoC5/front_right.c **** *******************************************************************************/
 377:Generated_Source\PSoC5/front_right.c **** void front_right_SetPending(void)
 378:Generated_Source\PSoC5/front_right.c **** {
 487              		.loc 1 378 0
 488              		.cfi_startproc
 489              		@ args = 0, pretend = 0, frame = 0
 490              		@ frame_needed = 1, uses_anonymous_args = 0
 491              		@ link register save eliminated.
 492 0000 80B4     		push	{r7}
 493              		.cfi_def_cfa_offset 4
 494              		.cfi_offset 7, -4
 495 0002 00AF     		add	r7, sp, #0
 496              		.cfi_def_cfa_register 7
 379:Generated_Source\PSoC5/front_right.c ****     *front_right_INTC_SET_PD = front_right__INTC_MASK;
 497              		.loc 1 379 0
 498 0004 034B     		ldr	r3, .L38
 499 0006 1022     		movs	r2, #16
 500 0008 1A60     		str	r2, [r3]
 380:Generated_Source\PSoC5/front_right.c **** }
 501              		.loc 1 380 0
 502 000a 00BF     		nop
 503 000c BD46     		mov	sp, r7
 504              		.cfi_def_cfa_register 13
 505              		@ sp needed
 506 000e 80BC     		pop	{r7}
 507              		.cfi_restore 7
 508              		.cfi_def_cfa_offset 0
 509 0010 7047     		bx	lr
 510              	.L39:
 511 0012 00BF     		.align	2
 512              	.L38:
 513 0014 00E200E0 		.word	-536813056
 514              		.cfi_endproc
 515              	.LFE74:
 516              		.size	front_right_SetPending, .-front_right_SetPending
 517              		.section	.text.front_right_ClearPending,"ax",%progbits
 518              		.align	2
 519              		.global	front_right_ClearPending
 520              		.thumb
 521              		.thumb_func
 522              		.type	front_right_ClearPending, %function
 523              	front_right_ClearPending:
 524              	.LFB75:
 381:Generated_Source\PSoC5/front_right.c **** 
 382:Generated_Source\PSoC5/front_right.c **** 
 383:Generated_Source\PSoC5/front_right.c **** /*******************************************************************************
 384:Generated_Source\PSoC5/front_right.c **** * Function Name: front_right_ClearPending
 385:Generated_Source\PSoC5/front_right.c **** ********************************************************************************
 386:Generated_Source\PSoC5/front_right.c **** *
 387:Generated_Source\PSoC5/front_right.c **** * Summary:
 388:Generated_Source\PSoC5/front_right.c **** *   Clears a pending interrupt in the interrupt controller.
ARM GAS  C:\Users\cta10\AppData\Local\Temp\ccmEz0yb.s 			page 17


 389:Generated_Source\PSoC5/front_right.c **** *
 390:Generated_Source\PSoC5/front_right.c **** *   Note Some interrupt sources are clear-on-read and require the block 
 391:Generated_Source\PSoC5/front_right.c **** *   interrupt/status register to be read/cleared with the appropriate block API 
 392:Generated_Source\PSoC5/front_right.c **** *   (GPIO, UART, and so on). Otherwise the ISR will continue to remain in 
 393:Generated_Source\PSoC5/front_right.c **** *   pending state even though the interrupt itself is cleared using this API.
 394:Generated_Source\PSoC5/front_right.c **** *
 395:Generated_Source\PSoC5/front_right.c **** * Parameters:
 396:Generated_Source\PSoC5/front_right.c **** *   None
 397:Generated_Source\PSoC5/front_right.c **** *
 398:Generated_Source\PSoC5/front_right.c **** * Return:
 399:Generated_Source\PSoC5/front_right.c **** *   None
 400:Generated_Source\PSoC5/front_right.c **** *
 401:Generated_Source\PSoC5/front_right.c **** *******************************************************************************/
 402:Generated_Source\PSoC5/front_right.c **** void front_right_ClearPending(void)
 403:Generated_Source\PSoC5/front_right.c **** {
 525              		.loc 1 403 0
 526              		.cfi_startproc
 527              		@ args = 0, pretend = 0, frame = 0
 528              		@ frame_needed = 1, uses_anonymous_args = 0
 529              		@ link register save eliminated.
 530 0000 80B4     		push	{r7}
 531              		.cfi_def_cfa_offset 4
 532              		.cfi_offset 7, -4
 533 0002 00AF     		add	r7, sp, #0
 534              		.cfi_def_cfa_register 7
 404:Generated_Source\PSoC5/front_right.c ****     *front_right_INTC_CLR_PD = front_right__INTC_MASK;
 535              		.loc 1 404 0
 536 0004 034B     		ldr	r3, .L41
 537 0006 1022     		movs	r2, #16
 538 0008 1A60     		str	r2, [r3]
 405:Generated_Source\PSoC5/front_right.c **** }
 539              		.loc 1 405 0
 540 000a 00BF     		nop
 541 000c BD46     		mov	sp, r7
 542              		.cfi_def_cfa_register 13
 543              		@ sp needed
 544 000e 80BC     		pop	{r7}
 545              		.cfi_restore 7
 546              		.cfi_def_cfa_offset 0
 547 0010 7047     		bx	lr
 548              	.L42:
 549 0012 00BF     		.align	2
 550              	.L41:
 551 0014 80E200E0 		.word	-536812928
 552              		.cfi_endproc
 553              	.LFE75:
 554              		.size	front_right_ClearPending, .-front_right_ClearPending
 555              		.text
 556              	.Letext0:
 557              		.file 2 "c:\\cypress\\psoc creator\\4.4\\psoc creator\\import\\gnu\\arm\\5.4.1\\arm-none-eabi\\inc
 558              		.file 3 "c:\\cypress\\psoc creator\\4.4\\psoc creator\\import\\gnu\\arm\\5.4.1\\arm-none-eabi\\inc
 559              		.file 4 "Generated_Source\\PSoC5/cytypes.h"
 560              		.file 5 "./main.h"
 561              		.file 6 "Generated_Source\\PSoC5/core_cm3.h"