ARM GAS  C:\Users\cta10\AppData\Local\Temp\ccK7viPd.s 			page 1


   1              		.syntax unified
   2              		.cpu cortex-m3
   3              		.fpu softvfp
   4              		.eabi_attribute 20, 1
   5              		.eabi_attribute 21, 1
   6              		.eabi_attribute 23, 3
   7              		.eabi_attribute 24, 1
   8              		.eabi_attribute 25, 1
   9              		.eabi_attribute 26, 1
  10              		.eabi_attribute 30, 6
  11              		.eabi_attribute 34, 1
  12              		.eabi_attribute 18, 4
  13              		.thumb
  14              		.syntax unified
  15              		.file	"isr_eoc2.c"
  16              		.text
  17              	.Ltext0:
  18              		.cfi_sections	.debug_frame
  19              		.global	sample_flag
  20              		.bss
  21              		.type	sample_flag, %object
  22              		.size	sample_flag, 1
  23              	sample_flag:
  24 0000 00       		.space	1
  25              		.section	.text.isr_eoc2_Start,"ax",%progbits
  26              		.align	2
  27              		.global	isr_eoc2_Start
  28              		.thumb
  29              		.thumb_func
  30              		.type	isr_eoc2_Start, %function
  31              	isr_eoc2_Start:
  32              	.LFB0:
  33              		.file 1 "Generated_Source\\PSoC5\\isr_eoc2.c"
   1:Generated_Source\PSoC5/isr_eoc2.c **** /*******************************************************************************
   2:Generated_Source\PSoC5/isr_eoc2.c **** * File Name: isr_eoc2.c  
   3:Generated_Source\PSoC5/isr_eoc2.c **** * Version 1.71
   4:Generated_Source\PSoC5/isr_eoc2.c **** *
   5:Generated_Source\PSoC5/isr_eoc2.c **** *  Description:
   6:Generated_Source\PSoC5/isr_eoc2.c **** *   API for controlling the state of an interrupt.
   7:Generated_Source\PSoC5/isr_eoc2.c **** *
   8:Generated_Source\PSoC5/isr_eoc2.c **** *
   9:Generated_Source\PSoC5/isr_eoc2.c **** *  Note:
  10:Generated_Source\PSoC5/isr_eoc2.c **** *
  11:Generated_Source\PSoC5/isr_eoc2.c **** ********************************************************************************
  12:Generated_Source\PSoC5/isr_eoc2.c **** * Copyright 2008-2015, Cypress Semiconductor Corporation.  All rights reserved.
  13:Generated_Source\PSoC5/isr_eoc2.c **** * You may use this file only in accordance with the license, terms, conditions, 
  14:Generated_Source\PSoC5/isr_eoc2.c **** * disclaimers, and limitations in the end user license agreement accompanying 
  15:Generated_Source\PSoC5/isr_eoc2.c **** * the software package with which this file was provided.
  16:Generated_Source\PSoC5/isr_eoc2.c **** *******************************************************************************/
  17:Generated_Source\PSoC5/isr_eoc2.c **** 
  18:Generated_Source\PSoC5/isr_eoc2.c **** 
  19:Generated_Source\PSoC5/isr_eoc2.c **** #include <cydevice_trm.h>
  20:Generated_Source\PSoC5/isr_eoc2.c **** #include <CyLib.h>
  21:Generated_Source\PSoC5/isr_eoc2.c **** #include <isr_eoc2.h>
  22:Generated_Source\PSoC5/isr_eoc2.c **** 
  23:Generated_Source\PSoC5/isr_eoc2.c **** 
  24:Generated_Source\PSoC5/isr_eoc2.c **** #if !defined(isr_eoc2__REMOVED) /* Check for removal by optimization */
ARM GAS  C:\Users\cta10\AppData\Local\Temp\ccK7viPd.s 			page 2


  25:Generated_Source\PSoC5/isr_eoc2.c **** 
  26:Generated_Source\PSoC5/isr_eoc2.c **** /*******************************************************************************
  27:Generated_Source\PSoC5/isr_eoc2.c **** *  Place your includes, defines and code here 
  28:Generated_Source\PSoC5/isr_eoc2.c **** ********************************************************************************/
  29:Generated_Source\PSoC5/isr_eoc2.c **** /* `#START isr_eoc2_intc` */
  30:Generated_Source\PSoC5/isr_eoc2.c **** #include "ADC_SAR_1.h"
  31:Generated_Source\PSoC5/isr_eoc2.c **** #include "VDAC.h"
  32:Generated_Source\PSoC5/isr_eoc2.c **** 
  33:Generated_Source\PSoC5/isr_eoc2.c **** extern uint8_t sample_flag= 0;
  34:Generated_Source\PSoC5/isr_eoc2.c **** /* `#END` */
  35:Generated_Source\PSoC5/isr_eoc2.c **** 
  36:Generated_Source\PSoC5/isr_eoc2.c **** #ifndef CYINT_IRQ_BASE
  37:Generated_Source\PSoC5/isr_eoc2.c **** #define CYINT_IRQ_BASE      16
  38:Generated_Source\PSoC5/isr_eoc2.c **** #endif /* CYINT_IRQ_BASE */
  39:Generated_Source\PSoC5/isr_eoc2.c **** #ifndef CYINT_VECT_TABLE
  40:Generated_Source\PSoC5/isr_eoc2.c **** #define CYINT_VECT_TABLE    ((cyisraddress **) CYREG_NVIC_VECT_OFFSET)
  41:Generated_Source\PSoC5/isr_eoc2.c **** #endif /* CYINT_VECT_TABLE */
  42:Generated_Source\PSoC5/isr_eoc2.c **** 
  43:Generated_Source\PSoC5/isr_eoc2.c **** /* Declared in startup, used to set unused interrupts to. */
  44:Generated_Source\PSoC5/isr_eoc2.c **** CY_ISR_PROTO(IntDefaultHandler);
  45:Generated_Source\PSoC5/isr_eoc2.c **** 
  46:Generated_Source\PSoC5/isr_eoc2.c **** 
  47:Generated_Source\PSoC5/isr_eoc2.c **** /*******************************************************************************
  48:Generated_Source\PSoC5/isr_eoc2.c **** * Function Name: isr_eoc2_Start
  49:Generated_Source\PSoC5/isr_eoc2.c **** ********************************************************************************
  50:Generated_Source\PSoC5/isr_eoc2.c **** *
  51:Generated_Source\PSoC5/isr_eoc2.c **** * Summary:
  52:Generated_Source\PSoC5/isr_eoc2.c **** *  Set up the interrupt and enable it. This function disables the interrupt, 
  53:Generated_Source\PSoC5/isr_eoc2.c **** *  sets the default interrupt vector, sets the priority from the value in the
  54:Generated_Source\PSoC5/isr_eoc2.c **** *  Design Wide Resources Interrupt Editor, then enables the interrupt to the 
  55:Generated_Source\PSoC5/isr_eoc2.c **** *  interrupt controller.
  56:Generated_Source\PSoC5/isr_eoc2.c **** *
  57:Generated_Source\PSoC5/isr_eoc2.c **** * Parameters:  
  58:Generated_Source\PSoC5/isr_eoc2.c **** *   None
  59:Generated_Source\PSoC5/isr_eoc2.c **** *
  60:Generated_Source\PSoC5/isr_eoc2.c **** * Return:
  61:Generated_Source\PSoC5/isr_eoc2.c **** *   None
  62:Generated_Source\PSoC5/isr_eoc2.c **** *
  63:Generated_Source\PSoC5/isr_eoc2.c **** *******************************************************************************/
  64:Generated_Source\PSoC5/isr_eoc2.c **** void isr_eoc2_Start(void)
  65:Generated_Source\PSoC5/isr_eoc2.c **** {
  34              		.loc 1 65 0
  35              		.cfi_startproc
  36              		@ args = 0, pretend = 0, frame = 0
  37              		@ frame_needed = 1, uses_anonymous_args = 0
  38 0000 80B5     		push	{r7, lr}
  39              		.cfi_def_cfa_offset 8
  40              		.cfi_offset 7, -8
  41              		.cfi_offset 14, -4
  42 0002 00AF     		add	r7, sp, #0
  43              		.cfi_def_cfa_register 7
  66:Generated_Source\PSoC5/isr_eoc2.c ****     /* For all we know the interrupt is active. */
  67:Generated_Source\PSoC5/isr_eoc2.c ****     isr_eoc2_Disable();
  44              		.loc 1 67 0
  45 0004 FFF7FEFF 		bl	isr_eoc2_Disable
  68:Generated_Source\PSoC5/isr_eoc2.c **** 
  69:Generated_Source\PSoC5/isr_eoc2.c ****     /* Set the ISR to point to the isr_eoc2 Interrupt. */
ARM GAS  C:\Users\cta10\AppData\Local\Temp\ccK7viPd.s 			page 3


  70:Generated_Source\PSoC5/isr_eoc2.c ****     isr_eoc2_SetVector(&isr_eoc2_Interrupt);
  46              		.loc 1 70 0
  47 0008 0448     		ldr	r0, .L2
  48 000a FFF7FEFF 		bl	isr_eoc2_SetVector
  71:Generated_Source\PSoC5/isr_eoc2.c **** 
  72:Generated_Source\PSoC5/isr_eoc2.c ****     /* Set the priority. */
  73:Generated_Source\PSoC5/isr_eoc2.c ****     isr_eoc2_SetPriority((uint8)isr_eoc2_INTC_PRIOR_NUMBER);
  49              		.loc 1 73 0
  50 000e 0720     		movs	r0, #7
  51 0010 FFF7FEFF 		bl	isr_eoc2_SetPriority
  74:Generated_Source\PSoC5/isr_eoc2.c **** 
  75:Generated_Source\PSoC5/isr_eoc2.c ****     /* Enable it. */
  76:Generated_Source\PSoC5/isr_eoc2.c ****     isr_eoc2_Enable();
  52              		.loc 1 76 0
  53 0014 FFF7FEFF 		bl	isr_eoc2_Enable
  77:Generated_Source\PSoC5/isr_eoc2.c **** }
  54              		.loc 1 77 0
  55 0018 00BF     		nop
  56 001a 80BD     		pop	{r7, pc}
  57              	.L3:
  58              		.align	2
  59              	.L2:
  60 001c 00000000 		.word	isr_eoc2_Interrupt
  61              		.cfi_endproc
  62              	.LFE0:
  63              		.size	isr_eoc2_Start, .-isr_eoc2_Start
  64              		.section	.text.isr_eoc2_StartEx,"ax",%progbits
  65              		.align	2
  66              		.global	isr_eoc2_StartEx
  67              		.thumb
  68              		.thumb_func
  69              		.type	isr_eoc2_StartEx, %function
  70              	isr_eoc2_StartEx:
  71              	.LFB1:
  78:Generated_Source\PSoC5/isr_eoc2.c **** 
  79:Generated_Source\PSoC5/isr_eoc2.c **** 
  80:Generated_Source\PSoC5/isr_eoc2.c **** /*******************************************************************************
  81:Generated_Source\PSoC5/isr_eoc2.c **** * Function Name: isr_eoc2_StartEx
  82:Generated_Source\PSoC5/isr_eoc2.c **** ********************************************************************************
  83:Generated_Source\PSoC5/isr_eoc2.c **** *
  84:Generated_Source\PSoC5/isr_eoc2.c **** * Summary:
  85:Generated_Source\PSoC5/isr_eoc2.c **** *  Sets up the interrupt and enables it. This function disables the interrupt,
  86:Generated_Source\PSoC5/isr_eoc2.c **** *  sets the interrupt vector based on the address passed in, sets the priority 
  87:Generated_Source\PSoC5/isr_eoc2.c **** *  from the value in the Design Wide Resources Interrupt Editor, then enables 
  88:Generated_Source\PSoC5/isr_eoc2.c **** *  the interrupt to the interrupt controller.
  89:Generated_Source\PSoC5/isr_eoc2.c **** *  
  90:Generated_Source\PSoC5/isr_eoc2.c **** *  When defining ISR functions, the CY_ISR and CY_ISR_PROTO macros should be 
  91:Generated_Source\PSoC5/isr_eoc2.c **** *  used to provide consistent definition across compilers:
  92:Generated_Source\PSoC5/isr_eoc2.c **** *  
  93:Generated_Source\PSoC5/isr_eoc2.c **** *  Function definition example:
  94:Generated_Source\PSoC5/isr_eoc2.c **** *   CY_ISR(MyISR)
  95:Generated_Source\PSoC5/isr_eoc2.c **** *   {
  96:Generated_Source\PSoC5/isr_eoc2.c **** *   }
  97:Generated_Source\PSoC5/isr_eoc2.c **** *   Function prototype example:
  98:Generated_Source\PSoC5/isr_eoc2.c **** *   CY_ISR_PROTO(MyISR);
  99:Generated_Source\PSoC5/isr_eoc2.c **** *
 100:Generated_Source\PSoC5/isr_eoc2.c **** * Parameters:  
ARM GAS  C:\Users\cta10\AppData\Local\Temp\ccK7viPd.s 			page 4


 101:Generated_Source\PSoC5/isr_eoc2.c **** *   address: Address of the ISR to set in the interrupt vector table.
 102:Generated_Source\PSoC5/isr_eoc2.c **** *
 103:Generated_Source\PSoC5/isr_eoc2.c **** * Return:
 104:Generated_Source\PSoC5/isr_eoc2.c **** *   None
 105:Generated_Source\PSoC5/isr_eoc2.c **** *
 106:Generated_Source\PSoC5/isr_eoc2.c **** *******************************************************************************/
 107:Generated_Source\PSoC5/isr_eoc2.c **** void isr_eoc2_StartEx(cyisraddress address)
 108:Generated_Source\PSoC5/isr_eoc2.c **** {
  72              		.loc 1 108 0
  73              		.cfi_startproc
  74              		@ args = 0, pretend = 0, frame = 8
  75              		@ frame_needed = 1, uses_anonymous_args = 0
  76 0000 80B5     		push	{r7, lr}
  77              		.cfi_def_cfa_offset 8
  78              		.cfi_offset 7, -8
  79              		.cfi_offset 14, -4
  80 0002 82B0     		sub	sp, sp, #8
  81              		.cfi_def_cfa_offset 16
  82 0004 00AF     		add	r7, sp, #0
  83              		.cfi_def_cfa_register 7
  84 0006 7860     		str	r0, [r7, #4]
 109:Generated_Source\PSoC5/isr_eoc2.c ****     /* For all we know the interrupt is active. */
 110:Generated_Source\PSoC5/isr_eoc2.c ****     isr_eoc2_Disable();
  85              		.loc 1 110 0
  86 0008 FFF7FEFF 		bl	isr_eoc2_Disable
 111:Generated_Source\PSoC5/isr_eoc2.c **** 
 112:Generated_Source\PSoC5/isr_eoc2.c ****     /* Set the ISR to point to the isr_eoc2 Interrupt. */
 113:Generated_Source\PSoC5/isr_eoc2.c ****     isr_eoc2_SetVector(address);
  87              		.loc 1 113 0
  88 000c 7868     		ldr	r0, [r7, #4]
  89 000e FFF7FEFF 		bl	isr_eoc2_SetVector
 114:Generated_Source\PSoC5/isr_eoc2.c **** 
 115:Generated_Source\PSoC5/isr_eoc2.c ****     /* Set the priority. */
 116:Generated_Source\PSoC5/isr_eoc2.c ****     isr_eoc2_SetPriority((uint8)isr_eoc2_INTC_PRIOR_NUMBER);
  90              		.loc 1 116 0
  91 0012 0720     		movs	r0, #7
  92 0014 FFF7FEFF 		bl	isr_eoc2_SetPriority
 117:Generated_Source\PSoC5/isr_eoc2.c **** 
 118:Generated_Source\PSoC5/isr_eoc2.c ****     /* Enable it. */
 119:Generated_Source\PSoC5/isr_eoc2.c ****     isr_eoc2_Enable();
  93              		.loc 1 119 0
  94 0018 FFF7FEFF 		bl	isr_eoc2_Enable
 120:Generated_Source\PSoC5/isr_eoc2.c **** }
  95              		.loc 1 120 0
  96 001c 00BF     		nop
  97 001e 0837     		adds	r7, r7, #8
  98              		.cfi_def_cfa_offset 8
  99 0020 BD46     		mov	sp, r7
 100              		.cfi_def_cfa_register 13
 101              		@ sp needed
 102 0022 80BD     		pop	{r7, pc}
 103              		.cfi_endproc
 104              	.LFE1:
 105              		.size	isr_eoc2_StartEx, .-isr_eoc2_StartEx
 106              		.section	.text.isr_eoc2_Stop,"ax",%progbits
 107              		.align	2
 108              		.global	isr_eoc2_Stop
ARM GAS  C:\Users\cta10\AppData\Local\Temp\ccK7viPd.s 			page 5


 109              		.thumb
 110              		.thumb_func
 111              		.type	isr_eoc2_Stop, %function
 112              	isr_eoc2_Stop:
 113              	.LFB2:
 121:Generated_Source\PSoC5/isr_eoc2.c **** 
 122:Generated_Source\PSoC5/isr_eoc2.c **** 
 123:Generated_Source\PSoC5/isr_eoc2.c **** /*******************************************************************************
 124:Generated_Source\PSoC5/isr_eoc2.c **** * Function Name: isr_eoc2_Stop
 125:Generated_Source\PSoC5/isr_eoc2.c **** ********************************************************************************
 126:Generated_Source\PSoC5/isr_eoc2.c **** *
 127:Generated_Source\PSoC5/isr_eoc2.c **** * Summary:
 128:Generated_Source\PSoC5/isr_eoc2.c **** *   Disables and removes the interrupt.
 129:Generated_Source\PSoC5/isr_eoc2.c **** *
 130:Generated_Source\PSoC5/isr_eoc2.c **** * Parameters:  
 131:Generated_Source\PSoC5/isr_eoc2.c **** *   None
 132:Generated_Source\PSoC5/isr_eoc2.c **** *
 133:Generated_Source\PSoC5/isr_eoc2.c **** * Return:
 134:Generated_Source\PSoC5/isr_eoc2.c **** *   None
 135:Generated_Source\PSoC5/isr_eoc2.c **** *
 136:Generated_Source\PSoC5/isr_eoc2.c **** *******************************************************************************/
 137:Generated_Source\PSoC5/isr_eoc2.c **** void isr_eoc2_Stop(void)
 138:Generated_Source\PSoC5/isr_eoc2.c **** {
 114              		.loc 1 138 0
 115              		.cfi_startproc
 116              		@ args = 0, pretend = 0, frame = 0
 117              		@ frame_needed = 1, uses_anonymous_args = 0
 118 0000 80B5     		push	{r7, lr}
 119              		.cfi_def_cfa_offset 8
 120              		.cfi_offset 7, -8
 121              		.cfi_offset 14, -4
 122 0002 00AF     		add	r7, sp, #0
 123              		.cfi_def_cfa_register 7
 139:Generated_Source\PSoC5/isr_eoc2.c ****     /* Disable this interrupt. */
 140:Generated_Source\PSoC5/isr_eoc2.c ****     isr_eoc2_Disable();
 124              		.loc 1 140 0
 125 0004 FFF7FEFF 		bl	isr_eoc2_Disable
 141:Generated_Source\PSoC5/isr_eoc2.c **** 
 142:Generated_Source\PSoC5/isr_eoc2.c ****     /* Set the ISR to point to the passive one. */
 143:Generated_Source\PSoC5/isr_eoc2.c ****     isr_eoc2_SetVector(&IntDefaultHandler);
 126              		.loc 1 143 0
 127 0008 0248     		ldr	r0, .L6
 128 000a FFF7FEFF 		bl	isr_eoc2_SetVector
 144:Generated_Source\PSoC5/isr_eoc2.c **** }
 129              		.loc 1 144 0
 130 000e 00BF     		nop
 131 0010 80BD     		pop	{r7, pc}
 132              	.L7:
 133 0012 00BF     		.align	2
 134              	.L6:
 135 0014 00000000 		.word	IntDefaultHandler
 136              		.cfi_endproc
 137              	.LFE2:
 138              		.size	isr_eoc2_Stop, .-isr_eoc2_Stop
 139              		.section	.text.isr_eoc2_Interrupt,"ax",%progbits
 140              		.align	2
 141              		.global	isr_eoc2_Interrupt
ARM GAS  C:\Users\cta10\AppData\Local\Temp\ccK7viPd.s 			page 6


 142              		.thumb
 143              		.thumb_func
 144              		.type	isr_eoc2_Interrupt, %function
 145              	isr_eoc2_Interrupt:
 146              	.LFB3:
 145:Generated_Source\PSoC5/isr_eoc2.c **** 
 146:Generated_Source\PSoC5/isr_eoc2.c **** 
 147:Generated_Source\PSoC5/isr_eoc2.c **** /*******************************************************************************
 148:Generated_Source\PSoC5/isr_eoc2.c **** * Function Name: isr_eoc2_Interrupt
 149:Generated_Source\PSoC5/isr_eoc2.c **** ********************************************************************************
 150:Generated_Source\PSoC5/isr_eoc2.c **** *
 151:Generated_Source\PSoC5/isr_eoc2.c **** * Summary:
 152:Generated_Source\PSoC5/isr_eoc2.c **** *   The default Interrupt Service Routine for isr_eoc2.
 153:Generated_Source\PSoC5/isr_eoc2.c **** *
 154:Generated_Source\PSoC5/isr_eoc2.c **** *   Add custom code between the coments to keep the next version of this file
 155:Generated_Source\PSoC5/isr_eoc2.c **** *   from over writting your code.
 156:Generated_Source\PSoC5/isr_eoc2.c **** *
 157:Generated_Source\PSoC5/isr_eoc2.c **** * Parameters:  
 158:Generated_Source\PSoC5/isr_eoc2.c **** *
 159:Generated_Source\PSoC5/isr_eoc2.c **** * Return:
 160:Generated_Source\PSoC5/isr_eoc2.c **** *   None
 161:Generated_Source\PSoC5/isr_eoc2.c **** *
 162:Generated_Source\PSoC5/isr_eoc2.c **** *******************************************************************************/
 163:Generated_Source\PSoC5/isr_eoc2.c **** CY_ISR(isr_eoc2_Interrupt)
 164:Generated_Source\PSoC5/isr_eoc2.c **** {
 147              		.loc 1 164 0
 148              		.cfi_startproc
 149              		@ args = 0, pretend = 0, frame = 0
 150              		@ frame_needed = 1, uses_anonymous_args = 0
 151              		@ link register save eliminated.
 152 0000 80B4     		push	{r7}
 153              		.cfi_def_cfa_offset 4
 154              		.cfi_offset 7, -4
 155 0002 00AF     		add	r7, sp, #0
 156              		.cfi_def_cfa_register 7
 165:Generated_Source\PSoC5/isr_eoc2.c ****     #ifdef isr_eoc2_INTERRUPT_INTERRUPT_CALLBACK
 166:Generated_Source\PSoC5/isr_eoc2.c ****         isr_eoc2_Interrupt_InterruptCallback();
 167:Generated_Source\PSoC5/isr_eoc2.c ****     #endif /* isr_eoc2_INTERRUPT_INTERRUPT_CALLBACK */ 
 168:Generated_Source\PSoC5/isr_eoc2.c **** 
 169:Generated_Source\PSoC5/isr_eoc2.c ****     /*  Place your Interrupt code here. */
 170:Generated_Source\PSoC5/isr_eoc2.c ****     /* `#START isr_eoc2_Interrupt` */
 171:Generated_Source\PSoC5/isr_eoc2.c ****     sample_flag = 1;
 157              		.loc 1 171 0
 158 0004 034B     		ldr	r3, .L9
 159 0006 0122     		movs	r2, #1
 160 0008 1A70     		strb	r2, [r3]
 172:Generated_Source\PSoC5/isr_eoc2.c ****     /* `#END` */
 173:Generated_Source\PSoC5/isr_eoc2.c **** }
 161              		.loc 1 173 0
 162 000a 00BF     		nop
 163 000c BD46     		mov	sp, r7
 164              		.cfi_def_cfa_register 13
 165              		@ sp needed
 166 000e 80BC     		pop	{r7}
 167              		.cfi_restore 7
 168              		.cfi_def_cfa_offset 0
 169 0010 7047     		bx	lr
ARM GAS  C:\Users\cta10\AppData\Local\Temp\ccK7viPd.s 			page 7


 170              	.L10:
 171 0012 00BF     		.align	2
 172              	.L9:
 173 0014 00000000 		.word	sample_flag
 174              		.cfi_endproc
 175              	.LFE3:
 176              		.size	isr_eoc2_Interrupt, .-isr_eoc2_Interrupt
 177              		.section	.text.isr_eoc2_SetVector,"ax",%progbits
 178              		.align	2
 179              		.global	isr_eoc2_SetVector
 180              		.thumb
 181              		.thumb_func
 182              		.type	isr_eoc2_SetVector, %function
 183              	isr_eoc2_SetVector:
 184              	.LFB4:
 174:Generated_Source\PSoC5/isr_eoc2.c **** 
 175:Generated_Source\PSoC5/isr_eoc2.c **** 
 176:Generated_Source\PSoC5/isr_eoc2.c **** /*******************************************************************************
 177:Generated_Source\PSoC5/isr_eoc2.c **** * Function Name: isr_eoc2_SetVector
 178:Generated_Source\PSoC5/isr_eoc2.c **** ********************************************************************************
 179:Generated_Source\PSoC5/isr_eoc2.c **** *
 180:Generated_Source\PSoC5/isr_eoc2.c **** * Summary:
 181:Generated_Source\PSoC5/isr_eoc2.c **** *   Change the ISR vector for the Interrupt. Note calling isr_eoc2_Start
 182:Generated_Source\PSoC5/isr_eoc2.c **** *   will override any effect this method would have had. To set the vector 
 183:Generated_Source\PSoC5/isr_eoc2.c **** *   before the component has been started use isr_eoc2_StartEx instead.
 184:Generated_Source\PSoC5/isr_eoc2.c **** * 
 185:Generated_Source\PSoC5/isr_eoc2.c **** *   When defining ISR functions, the CY_ISR and CY_ISR_PROTO macros should be 
 186:Generated_Source\PSoC5/isr_eoc2.c **** *   used to provide consistent definition across compilers:
 187:Generated_Source\PSoC5/isr_eoc2.c **** *
 188:Generated_Source\PSoC5/isr_eoc2.c **** *   Function definition example:
 189:Generated_Source\PSoC5/isr_eoc2.c **** *   CY_ISR(MyISR)
 190:Generated_Source\PSoC5/isr_eoc2.c **** *   {
 191:Generated_Source\PSoC5/isr_eoc2.c **** *   }
 192:Generated_Source\PSoC5/isr_eoc2.c **** *
 193:Generated_Source\PSoC5/isr_eoc2.c **** *   Function prototype example:
 194:Generated_Source\PSoC5/isr_eoc2.c **** *     CY_ISR_PROTO(MyISR);
 195:Generated_Source\PSoC5/isr_eoc2.c **** *
 196:Generated_Source\PSoC5/isr_eoc2.c **** * Parameters:
 197:Generated_Source\PSoC5/isr_eoc2.c **** *   address: Address of the ISR to set in the interrupt vector table.
 198:Generated_Source\PSoC5/isr_eoc2.c **** *
 199:Generated_Source\PSoC5/isr_eoc2.c **** * Return:
 200:Generated_Source\PSoC5/isr_eoc2.c **** *   None
 201:Generated_Source\PSoC5/isr_eoc2.c **** *
 202:Generated_Source\PSoC5/isr_eoc2.c **** *******************************************************************************/
 203:Generated_Source\PSoC5/isr_eoc2.c **** void isr_eoc2_SetVector(cyisraddress address)
 204:Generated_Source\PSoC5/isr_eoc2.c **** {
 185              		.loc 1 204 0
 186              		.cfi_startproc
 187              		@ args = 0, pretend = 0, frame = 16
 188              		@ frame_needed = 1, uses_anonymous_args = 0
 189              		@ link register save eliminated.
 190 0000 80B4     		push	{r7}
 191              		.cfi_def_cfa_offset 4
 192              		.cfi_offset 7, -4
 193 0002 85B0     		sub	sp, sp, #20
 194              		.cfi_def_cfa_offset 24
 195 0004 00AF     		add	r7, sp, #0
ARM GAS  C:\Users\cta10\AppData\Local\Temp\ccK7viPd.s 			page 8


 196              		.cfi_def_cfa_register 7
 197 0006 7860     		str	r0, [r7, #4]
 205:Generated_Source\PSoC5/isr_eoc2.c ****     cyisraddress * ramVectorTable;
 206:Generated_Source\PSoC5/isr_eoc2.c **** 
 207:Generated_Source\PSoC5/isr_eoc2.c ****     ramVectorTable = (cyisraddress *) *CYINT_VECT_TABLE;
 198              		.loc 1 207 0
 199 0008 054B     		ldr	r3, .L12
 200 000a 1B68     		ldr	r3, [r3]
 201 000c FB60     		str	r3, [r7, #12]
 208:Generated_Source\PSoC5/isr_eoc2.c **** 
 209:Generated_Source\PSoC5/isr_eoc2.c ****     ramVectorTable[CYINT_IRQ_BASE + (uint32)isr_eoc2__INTC_NUMBER] = address;
 202              		.loc 1 209 0
 203 000e FB68     		ldr	r3, [r7, #12]
 204 0010 6433     		adds	r3, r3, #100
 205 0012 7A68     		ldr	r2, [r7, #4]
 206 0014 1A60     		str	r2, [r3]
 210:Generated_Source\PSoC5/isr_eoc2.c **** }
 207              		.loc 1 210 0
 208 0016 00BF     		nop
 209 0018 1437     		adds	r7, r7, #20
 210              		.cfi_def_cfa_offset 4
 211 001a BD46     		mov	sp, r7
 212              		.cfi_def_cfa_register 13
 213              		@ sp needed
 214 001c 80BC     		pop	{r7}
 215              		.cfi_restore 7
 216              		.cfi_def_cfa_offset 0
 217 001e 7047     		bx	lr
 218              	.L13:
 219              		.align	2
 220              	.L12:
 221 0020 08ED00E0 		.word	-536810232
 222              		.cfi_endproc
 223              	.LFE4:
 224              		.size	isr_eoc2_SetVector, .-isr_eoc2_SetVector
 225              		.section	.text.isr_eoc2_GetVector,"ax",%progbits
 226              		.align	2
 227              		.global	isr_eoc2_GetVector
 228              		.thumb
 229              		.thumb_func
 230              		.type	isr_eoc2_GetVector, %function
 231              	isr_eoc2_GetVector:
 232              	.LFB5:
 211:Generated_Source\PSoC5/isr_eoc2.c **** 
 212:Generated_Source\PSoC5/isr_eoc2.c **** 
 213:Generated_Source\PSoC5/isr_eoc2.c **** /*******************************************************************************
 214:Generated_Source\PSoC5/isr_eoc2.c **** * Function Name: isr_eoc2_GetVector
 215:Generated_Source\PSoC5/isr_eoc2.c **** ********************************************************************************
 216:Generated_Source\PSoC5/isr_eoc2.c **** *
 217:Generated_Source\PSoC5/isr_eoc2.c **** * Summary:
 218:Generated_Source\PSoC5/isr_eoc2.c **** *   Gets the "address" of the current ISR vector for the Interrupt.
 219:Generated_Source\PSoC5/isr_eoc2.c **** *
 220:Generated_Source\PSoC5/isr_eoc2.c **** * Parameters:
 221:Generated_Source\PSoC5/isr_eoc2.c **** *   None
 222:Generated_Source\PSoC5/isr_eoc2.c **** *
 223:Generated_Source\PSoC5/isr_eoc2.c **** * Return:
 224:Generated_Source\PSoC5/isr_eoc2.c **** *   Address of the ISR in the interrupt vector table.
ARM GAS  C:\Users\cta10\AppData\Local\Temp\ccK7viPd.s 			page 9


 225:Generated_Source\PSoC5/isr_eoc2.c **** *
 226:Generated_Source\PSoC5/isr_eoc2.c **** *******************************************************************************/
 227:Generated_Source\PSoC5/isr_eoc2.c **** cyisraddress isr_eoc2_GetVector(void)
 228:Generated_Source\PSoC5/isr_eoc2.c **** {
 233              		.loc 1 228 0
 234              		.cfi_startproc
 235              		@ args = 0, pretend = 0, frame = 8
 236              		@ frame_needed = 1, uses_anonymous_args = 0
 237              		@ link register save eliminated.
 238 0000 80B4     		push	{r7}
 239              		.cfi_def_cfa_offset 4
 240              		.cfi_offset 7, -4
 241 0002 83B0     		sub	sp, sp, #12
 242              		.cfi_def_cfa_offset 16
 243 0004 00AF     		add	r7, sp, #0
 244              		.cfi_def_cfa_register 7
 229:Generated_Source\PSoC5/isr_eoc2.c ****     cyisraddress * ramVectorTable;
 230:Generated_Source\PSoC5/isr_eoc2.c **** 
 231:Generated_Source\PSoC5/isr_eoc2.c ****     ramVectorTable = (cyisraddress *) *CYINT_VECT_TABLE;
 245              		.loc 1 231 0
 246 0006 054B     		ldr	r3, .L16
 247 0008 1B68     		ldr	r3, [r3]
 248 000a 7B60     		str	r3, [r7, #4]
 232:Generated_Source\PSoC5/isr_eoc2.c **** 
 233:Generated_Source\PSoC5/isr_eoc2.c ****     return ramVectorTable[CYINT_IRQ_BASE + (uint32)isr_eoc2__INTC_NUMBER];
 249              		.loc 1 233 0
 250 000c 7B68     		ldr	r3, [r7, #4]
 251 000e 5B6E     		ldr	r3, [r3, #100]
 234:Generated_Source\PSoC5/isr_eoc2.c **** }
 252              		.loc 1 234 0
 253 0010 1846     		mov	r0, r3
 254 0012 0C37     		adds	r7, r7, #12
 255              		.cfi_def_cfa_offset 4
 256 0014 BD46     		mov	sp, r7
 257              		.cfi_def_cfa_register 13
 258              		@ sp needed
 259 0016 80BC     		pop	{r7}
 260              		.cfi_restore 7
 261              		.cfi_def_cfa_offset 0
 262 0018 7047     		bx	lr
 263              	.L17:
 264 001a 00BF     		.align	2
 265              	.L16:
 266 001c 08ED00E0 		.word	-536810232
 267              		.cfi_endproc
 268              	.LFE5:
 269              		.size	isr_eoc2_GetVector, .-isr_eoc2_GetVector
 270              		.section	.text.isr_eoc2_SetPriority,"ax",%progbits
 271              		.align	2
 272              		.global	isr_eoc2_SetPriority
 273              		.thumb
 274              		.thumb_func
 275              		.type	isr_eoc2_SetPriority, %function
 276              	isr_eoc2_SetPriority:
 277              	.LFB6:
 235:Generated_Source\PSoC5/isr_eoc2.c **** 
 236:Generated_Source\PSoC5/isr_eoc2.c **** 
ARM GAS  C:\Users\cta10\AppData\Local\Temp\ccK7viPd.s 			page 10


 237:Generated_Source\PSoC5/isr_eoc2.c **** /*******************************************************************************
 238:Generated_Source\PSoC5/isr_eoc2.c **** * Function Name: isr_eoc2_SetPriority
 239:Generated_Source\PSoC5/isr_eoc2.c **** ********************************************************************************
 240:Generated_Source\PSoC5/isr_eoc2.c **** *
 241:Generated_Source\PSoC5/isr_eoc2.c **** * Summary:
 242:Generated_Source\PSoC5/isr_eoc2.c **** *   Sets the Priority of the Interrupt. 
 243:Generated_Source\PSoC5/isr_eoc2.c **** *
 244:Generated_Source\PSoC5/isr_eoc2.c **** *   Note calling isr_eoc2_Start or isr_eoc2_StartEx will 
 245:Generated_Source\PSoC5/isr_eoc2.c **** *   override any effect this API would have had. This API should only be called
 246:Generated_Source\PSoC5/isr_eoc2.c **** *   after isr_eoc2_Start or isr_eoc2_StartEx has been called. 
 247:Generated_Source\PSoC5/isr_eoc2.c **** *   To set the initial priority for the component, use the Design-Wide Resources
 248:Generated_Source\PSoC5/isr_eoc2.c **** *   Interrupt Editor.
 249:Generated_Source\PSoC5/isr_eoc2.c **** *
 250:Generated_Source\PSoC5/isr_eoc2.c **** *   Note This API has no effect on Non-maskable interrupt NMI).
 251:Generated_Source\PSoC5/isr_eoc2.c **** *
 252:Generated_Source\PSoC5/isr_eoc2.c **** * Parameters:
 253:Generated_Source\PSoC5/isr_eoc2.c **** *   priority: Priority of the interrupt, 0 being the highest priority
 254:Generated_Source\PSoC5/isr_eoc2.c **** *             PSoC 3 and PSoC 5LP: Priority is from 0 to 7.
 255:Generated_Source\PSoC5/isr_eoc2.c **** *             PSoC 4: Priority is from 0 to 3.
 256:Generated_Source\PSoC5/isr_eoc2.c **** *
 257:Generated_Source\PSoC5/isr_eoc2.c **** * Return:
 258:Generated_Source\PSoC5/isr_eoc2.c **** *   None
 259:Generated_Source\PSoC5/isr_eoc2.c **** *
 260:Generated_Source\PSoC5/isr_eoc2.c **** *******************************************************************************/
 261:Generated_Source\PSoC5/isr_eoc2.c **** void isr_eoc2_SetPriority(uint8 priority)
 262:Generated_Source\PSoC5/isr_eoc2.c **** {
 278              		.loc 1 262 0
 279              		.cfi_startproc
 280              		@ args = 0, pretend = 0, frame = 8
 281              		@ frame_needed = 1, uses_anonymous_args = 0
 282              		@ link register save eliminated.
 283 0000 80B4     		push	{r7}
 284              		.cfi_def_cfa_offset 4
 285              		.cfi_offset 7, -4
 286 0002 83B0     		sub	sp, sp, #12
 287              		.cfi_def_cfa_offset 16
 288 0004 00AF     		add	r7, sp, #0
 289              		.cfi_def_cfa_register 7
 290 0006 0346     		mov	r3, r0
 291 0008 FB71     		strb	r3, [r7, #7]
 263:Generated_Source\PSoC5/isr_eoc2.c ****     *isr_eoc2_INTC_PRIOR = priority << 5;
 292              		.loc 1 263 0
 293 000a 054A     		ldr	r2, .L19
 294 000c FB79     		ldrb	r3, [r7, #7]
 295 000e 5B01     		lsls	r3, r3, #5
 296 0010 DBB2     		uxtb	r3, r3
 297 0012 1370     		strb	r3, [r2]
 264:Generated_Source\PSoC5/isr_eoc2.c **** }
 298              		.loc 1 264 0
 299 0014 00BF     		nop
 300 0016 0C37     		adds	r7, r7, #12
 301              		.cfi_def_cfa_offset 4
 302 0018 BD46     		mov	sp, r7
 303              		.cfi_def_cfa_register 13
 304              		@ sp needed
 305 001a 80BC     		pop	{r7}
 306              		.cfi_restore 7
ARM GAS  C:\Users\cta10\AppData\Local\Temp\ccK7viPd.s 			page 11


 307              		.cfi_def_cfa_offset 0
 308 001c 7047     		bx	lr
 309              	.L20:
 310 001e 00BF     		.align	2
 311              	.L19:
 312 0020 09E400E0 		.word	-536812535
 313              		.cfi_endproc
 314              	.LFE6:
 315              		.size	isr_eoc2_SetPriority, .-isr_eoc2_SetPriority
 316              		.section	.text.isr_eoc2_GetPriority,"ax",%progbits
 317              		.align	2
 318              		.global	isr_eoc2_GetPriority
 319              		.thumb
 320              		.thumb_func
 321              		.type	isr_eoc2_GetPriority, %function
 322              	isr_eoc2_GetPriority:
 323              	.LFB7:
 265:Generated_Source\PSoC5/isr_eoc2.c **** 
 266:Generated_Source\PSoC5/isr_eoc2.c **** 
 267:Generated_Source\PSoC5/isr_eoc2.c **** /*******************************************************************************
 268:Generated_Source\PSoC5/isr_eoc2.c **** * Function Name: isr_eoc2_GetPriority
 269:Generated_Source\PSoC5/isr_eoc2.c **** ********************************************************************************
 270:Generated_Source\PSoC5/isr_eoc2.c **** *
 271:Generated_Source\PSoC5/isr_eoc2.c **** * Summary:
 272:Generated_Source\PSoC5/isr_eoc2.c **** *   Gets the Priority of the Interrupt.
 273:Generated_Source\PSoC5/isr_eoc2.c **** *
 274:Generated_Source\PSoC5/isr_eoc2.c **** * Parameters:
 275:Generated_Source\PSoC5/isr_eoc2.c **** *   None
 276:Generated_Source\PSoC5/isr_eoc2.c **** *
 277:Generated_Source\PSoC5/isr_eoc2.c **** * Return:
 278:Generated_Source\PSoC5/isr_eoc2.c **** *   Priority of the interrupt, 0 being the highest priority
 279:Generated_Source\PSoC5/isr_eoc2.c **** *    PSoC 3 and PSoC 5LP: Priority is from 0 to 7.
 280:Generated_Source\PSoC5/isr_eoc2.c **** *    PSoC 4: Priority is from 0 to 3.
 281:Generated_Source\PSoC5/isr_eoc2.c **** *
 282:Generated_Source\PSoC5/isr_eoc2.c **** *******************************************************************************/
 283:Generated_Source\PSoC5/isr_eoc2.c **** uint8 isr_eoc2_GetPriority(void)
 284:Generated_Source\PSoC5/isr_eoc2.c **** {
 324              		.loc 1 284 0
 325              		.cfi_startproc
 326              		@ args = 0, pretend = 0, frame = 8
 327              		@ frame_needed = 1, uses_anonymous_args = 0
 328              		@ link register save eliminated.
 329 0000 80B4     		push	{r7}
 330              		.cfi_def_cfa_offset 4
 331              		.cfi_offset 7, -4
 332 0002 83B0     		sub	sp, sp, #12
 333              		.cfi_def_cfa_offset 16
 334 0004 00AF     		add	r7, sp, #0
 335              		.cfi_def_cfa_register 7
 285:Generated_Source\PSoC5/isr_eoc2.c ****     uint8 priority;
 286:Generated_Source\PSoC5/isr_eoc2.c **** 
 287:Generated_Source\PSoC5/isr_eoc2.c **** 
 288:Generated_Source\PSoC5/isr_eoc2.c ****     priority = *isr_eoc2_INTC_PRIOR >> 5;
 336              		.loc 1 288 0
 337 0006 054B     		ldr	r3, .L23
 338 0008 1B78     		ldrb	r3, [r3]
 339 000a DBB2     		uxtb	r3, r3
ARM GAS  C:\Users\cta10\AppData\Local\Temp\ccK7viPd.s 			page 12


 340 000c 5B09     		lsrs	r3, r3, #5
 341 000e FB71     		strb	r3, [r7, #7]
 289:Generated_Source\PSoC5/isr_eoc2.c **** 
 290:Generated_Source\PSoC5/isr_eoc2.c ****     return priority;
 342              		.loc 1 290 0
 343 0010 FB79     		ldrb	r3, [r7, #7]	@ zero_extendqisi2
 291:Generated_Source\PSoC5/isr_eoc2.c **** }
 344              		.loc 1 291 0
 345 0012 1846     		mov	r0, r3
 346 0014 0C37     		adds	r7, r7, #12
 347              		.cfi_def_cfa_offset 4
 348 0016 BD46     		mov	sp, r7
 349              		.cfi_def_cfa_register 13
 350              		@ sp needed
 351 0018 80BC     		pop	{r7}
 352              		.cfi_restore 7
 353              		.cfi_def_cfa_offset 0
 354 001a 7047     		bx	lr
 355              	.L24:
 356              		.align	2
 357              	.L23:
 358 001c 09E400E0 		.word	-536812535
 359              		.cfi_endproc
 360              	.LFE7:
 361              		.size	isr_eoc2_GetPriority, .-isr_eoc2_GetPriority
 362              		.section	.text.isr_eoc2_Enable,"ax",%progbits
 363              		.align	2
 364              		.global	isr_eoc2_Enable
 365              		.thumb
 366              		.thumb_func
 367              		.type	isr_eoc2_Enable, %function
 368              	isr_eoc2_Enable:
 369              	.LFB8:
 292:Generated_Source\PSoC5/isr_eoc2.c **** 
 293:Generated_Source\PSoC5/isr_eoc2.c **** 
 294:Generated_Source\PSoC5/isr_eoc2.c **** /*******************************************************************************
 295:Generated_Source\PSoC5/isr_eoc2.c **** * Function Name: isr_eoc2_Enable
 296:Generated_Source\PSoC5/isr_eoc2.c **** ********************************************************************************
 297:Generated_Source\PSoC5/isr_eoc2.c **** *
 298:Generated_Source\PSoC5/isr_eoc2.c **** * Summary:
 299:Generated_Source\PSoC5/isr_eoc2.c **** *   Enables the interrupt to the interrupt controller. Do not call this function
 300:Generated_Source\PSoC5/isr_eoc2.c **** *   unless ISR_Start() has been called or the functionality of the ISR_Start() 
 301:Generated_Source\PSoC5/isr_eoc2.c **** *   function, which sets the vector and the priority, has been called.
 302:Generated_Source\PSoC5/isr_eoc2.c **** *
 303:Generated_Source\PSoC5/isr_eoc2.c **** * Parameters:
 304:Generated_Source\PSoC5/isr_eoc2.c **** *   None
 305:Generated_Source\PSoC5/isr_eoc2.c **** *
 306:Generated_Source\PSoC5/isr_eoc2.c **** * Return:
 307:Generated_Source\PSoC5/isr_eoc2.c **** *   None
 308:Generated_Source\PSoC5/isr_eoc2.c **** *
 309:Generated_Source\PSoC5/isr_eoc2.c **** *******************************************************************************/
 310:Generated_Source\PSoC5/isr_eoc2.c **** void isr_eoc2_Enable(void)
 311:Generated_Source\PSoC5/isr_eoc2.c **** {
 370              		.loc 1 311 0
 371              		.cfi_startproc
 372              		@ args = 0, pretend = 0, frame = 0
 373              		@ frame_needed = 1, uses_anonymous_args = 0
ARM GAS  C:\Users\cta10\AppData\Local\Temp\ccK7viPd.s 			page 13


 374              		@ link register save eliminated.
 375 0000 80B4     		push	{r7}
 376              		.cfi_def_cfa_offset 4
 377              		.cfi_offset 7, -4
 378 0002 00AF     		add	r7, sp, #0
 379              		.cfi_def_cfa_register 7
 312:Generated_Source\PSoC5/isr_eoc2.c ****     /* Enable the general interrupt. */
 313:Generated_Source\PSoC5/isr_eoc2.c ****     *isr_eoc2_INTC_SET_EN = isr_eoc2__INTC_MASK;
 380              		.loc 1 313 0
 381 0004 034B     		ldr	r3, .L26
 382 0006 4FF40072 		mov	r2, #512
 383 000a 1A60     		str	r2, [r3]
 314:Generated_Source\PSoC5/isr_eoc2.c **** }
 384              		.loc 1 314 0
 385 000c 00BF     		nop
 386 000e BD46     		mov	sp, r7
 387              		.cfi_def_cfa_register 13
 388              		@ sp needed
 389 0010 80BC     		pop	{r7}
 390              		.cfi_restore 7
 391              		.cfi_def_cfa_offset 0
 392 0012 7047     		bx	lr
 393              	.L27:
 394              		.align	2
 395              	.L26:
 396 0014 00E100E0 		.word	-536813312
 397              		.cfi_endproc
 398              	.LFE8:
 399              		.size	isr_eoc2_Enable, .-isr_eoc2_Enable
 400              		.section	.text.isr_eoc2_GetState,"ax",%progbits
 401              		.align	2
 402              		.global	isr_eoc2_GetState
 403              		.thumb
 404              		.thumb_func
 405              		.type	isr_eoc2_GetState, %function
 406              	isr_eoc2_GetState:
 407              	.LFB9:
 315:Generated_Source\PSoC5/isr_eoc2.c **** 
 316:Generated_Source\PSoC5/isr_eoc2.c **** 
 317:Generated_Source\PSoC5/isr_eoc2.c **** /*******************************************************************************
 318:Generated_Source\PSoC5/isr_eoc2.c **** * Function Name: isr_eoc2_GetState
 319:Generated_Source\PSoC5/isr_eoc2.c **** ********************************************************************************
 320:Generated_Source\PSoC5/isr_eoc2.c **** *
 321:Generated_Source\PSoC5/isr_eoc2.c **** * Summary:
 322:Generated_Source\PSoC5/isr_eoc2.c **** *   Gets the state (enabled, disabled) of the Interrupt.
 323:Generated_Source\PSoC5/isr_eoc2.c **** *
 324:Generated_Source\PSoC5/isr_eoc2.c **** * Parameters:
 325:Generated_Source\PSoC5/isr_eoc2.c **** *   None
 326:Generated_Source\PSoC5/isr_eoc2.c **** *
 327:Generated_Source\PSoC5/isr_eoc2.c **** * Return:
 328:Generated_Source\PSoC5/isr_eoc2.c **** *   1 if enabled, 0 if disabled.
 329:Generated_Source\PSoC5/isr_eoc2.c **** *
 330:Generated_Source\PSoC5/isr_eoc2.c **** *******************************************************************************/
 331:Generated_Source\PSoC5/isr_eoc2.c **** uint8 isr_eoc2_GetState(void)
 332:Generated_Source\PSoC5/isr_eoc2.c **** {
 408              		.loc 1 332 0
 409              		.cfi_startproc
ARM GAS  C:\Users\cta10\AppData\Local\Temp\ccK7viPd.s 			page 14


 410              		@ args = 0, pretend = 0, frame = 0
 411              		@ frame_needed = 1, uses_anonymous_args = 0
 412              		@ link register save eliminated.
 413 0000 80B4     		push	{r7}
 414              		.cfi_def_cfa_offset 4
 415              		.cfi_offset 7, -4
 416 0002 00AF     		add	r7, sp, #0
 417              		.cfi_def_cfa_register 7
 333:Generated_Source\PSoC5/isr_eoc2.c ****     /* Get the state of the general interrupt. */
 334:Generated_Source\PSoC5/isr_eoc2.c ****     return ((*isr_eoc2_INTC_SET_EN & (uint32)isr_eoc2__INTC_MASK) != 0u) ? 1u:0u;
 418              		.loc 1 334 0
 419 0004 064B     		ldr	r3, .L32
 420 0006 1B68     		ldr	r3, [r3]
 421 0008 03F40073 		and	r3, r3, #512
 422 000c 002B     		cmp	r3, #0
 423 000e 01D0     		beq	.L29
 424              		.loc 1 334 0 is_stmt 0 discriminator 1
 425 0010 0123     		movs	r3, #1
 426 0012 00E0     		b	.L30
 427              	.L29:
 428              		.loc 1 334 0 discriminator 2
 429 0014 0023     		movs	r3, #0
 430              	.L30:
 335:Generated_Source\PSoC5/isr_eoc2.c **** }
 431              		.loc 1 335 0 is_stmt 1 discriminator 4
 432 0016 1846     		mov	r0, r3
 433 0018 BD46     		mov	sp, r7
 434              		.cfi_def_cfa_register 13
 435              		@ sp needed
 436 001a 80BC     		pop	{r7}
 437              		.cfi_restore 7
 438              		.cfi_def_cfa_offset 0
 439 001c 7047     		bx	lr
 440              	.L33:
 441 001e 00BF     		.align	2
 442              	.L32:
 443 0020 00E100E0 		.word	-536813312
 444              		.cfi_endproc
 445              	.LFE9:
 446              		.size	isr_eoc2_GetState, .-isr_eoc2_GetState
 447              		.section	.text.isr_eoc2_Disable,"ax",%progbits
 448              		.align	2
 449              		.global	isr_eoc2_Disable
 450              		.thumb
 451              		.thumb_func
 452              		.type	isr_eoc2_Disable, %function
 453              	isr_eoc2_Disable:
 454              	.LFB10:
 336:Generated_Source\PSoC5/isr_eoc2.c **** 
 337:Generated_Source\PSoC5/isr_eoc2.c **** 
 338:Generated_Source\PSoC5/isr_eoc2.c **** /*******************************************************************************
 339:Generated_Source\PSoC5/isr_eoc2.c **** * Function Name: isr_eoc2_Disable
 340:Generated_Source\PSoC5/isr_eoc2.c **** ********************************************************************************
 341:Generated_Source\PSoC5/isr_eoc2.c **** *
 342:Generated_Source\PSoC5/isr_eoc2.c **** * Summary:
 343:Generated_Source\PSoC5/isr_eoc2.c **** *   Disables the Interrupt in the interrupt controller.
 344:Generated_Source\PSoC5/isr_eoc2.c **** *
ARM GAS  C:\Users\cta10\AppData\Local\Temp\ccK7viPd.s 			page 15


 345:Generated_Source\PSoC5/isr_eoc2.c **** * Parameters:
 346:Generated_Source\PSoC5/isr_eoc2.c **** *   None
 347:Generated_Source\PSoC5/isr_eoc2.c **** *
 348:Generated_Source\PSoC5/isr_eoc2.c **** * Return:
 349:Generated_Source\PSoC5/isr_eoc2.c **** *   None
 350:Generated_Source\PSoC5/isr_eoc2.c **** *
 351:Generated_Source\PSoC5/isr_eoc2.c **** *******************************************************************************/
 352:Generated_Source\PSoC5/isr_eoc2.c **** void isr_eoc2_Disable(void)
 353:Generated_Source\PSoC5/isr_eoc2.c **** {
 455              		.loc 1 353 0
 456              		.cfi_startproc
 457              		@ args = 0, pretend = 0, frame = 0
 458              		@ frame_needed = 1, uses_anonymous_args = 0
 459              		@ link register save eliminated.
 460 0000 80B4     		push	{r7}
 461              		.cfi_def_cfa_offset 4
 462              		.cfi_offset 7, -4
 463 0002 00AF     		add	r7, sp, #0
 464              		.cfi_def_cfa_register 7
 354:Generated_Source\PSoC5/isr_eoc2.c ****     /* Disable the general interrupt. */
 355:Generated_Source\PSoC5/isr_eoc2.c ****     *isr_eoc2_INTC_CLR_EN = isr_eoc2__INTC_MASK;
 465              		.loc 1 355 0
 466 0004 034B     		ldr	r3, .L35
 467 0006 4FF40072 		mov	r2, #512
 468 000a 1A60     		str	r2, [r3]
 356:Generated_Source\PSoC5/isr_eoc2.c **** }
 469              		.loc 1 356 0
 470 000c 00BF     		nop
 471 000e BD46     		mov	sp, r7
 472              		.cfi_def_cfa_register 13
 473              		@ sp needed
 474 0010 80BC     		pop	{r7}
 475              		.cfi_restore 7
 476              		.cfi_def_cfa_offset 0
 477 0012 7047     		bx	lr
 478              	.L36:
 479              		.align	2
 480              	.L35:
 481 0014 80E100E0 		.word	-536813184
 482              		.cfi_endproc
 483              	.LFE10:
 484              		.size	isr_eoc2_Disable, .-isr_eoc2_Disable
 485              		.section	.text.isr_eoc2_SetPending,"ax",%progbits
 486              		.align	2
 487              		.global	isr_eoc2_SetPending
 488              		.thumb
 489              		.thumb_func
 490              		.type	isr_eoc2_SetPending, %function
 491              	isr_eoc2_SetPending:
 492              	.LFB11:
 357:Generated_Source\PSoC5/isr_eoc2.c **** 
 358:Generated_Source\PSoC5/isr_eoc2.c **** 
 359:Generated_Source\PSoC5/isr_eoc2.c **** /*******************************************************************************
 360:Generated_Source\PSoC5/isr_eoc2.c **** * Function Name: isr_eoc2_SetPending
 361:Generated_Source\PSoC5/isr_eoc2.c **** ********************************************************************************
 362:Generated_Source\PSoC5/isr_eoc2.c **** *
 363:Generated_Source\PSoC5/isr_eoc2.c **** * Summary:
ARM GAS  C:\Users\cta10\AppData\Local\Temp\ccK7viPd.s 			page 16


 364:Generated_Source\PSoC5/isr_eoc2.c **** *   Causes the Interrupt to enter the pending state, a software method of
 365:Generated_Source\PSoC5/isr_eoc2.c **** *   generating the interrupt.
 366:Generated_Source\PSoC5/isr_eoc2.c **** *
 367:Generated_Source\PSoC5/isr_eoc2.c **** * Parameters:
 368:Generated_Source\PSoC5/isr_eoc2.c **** *   None
 369:Generated_Source\PSoC5/isr_eoc2.c **** *
 370:Generated_Source\PSoC5/isr_eoc2.c **** * Return:
 371:Generated_Source\PSoC5/isr_eoc2.c **** *   None
 372:Generated_Source\PSoC5/isr_eoc2.c **** *
 373:Generated_Source\PSoC5/isr_eoc2.c **** * Side Effects:
 374:Generated_Source\PSoC5/isr_eoc2.c **** *   If interrupts are enabled and the interrupt is set up properly, the ISR is
 375:Generated_Source\PSoC5/isr_eoc2.c **** *   entered (depending on the priority of this interrupt and other pending 
 376:Generated_Source\PSoC5/isr_eoc2.c **** *   interrupts).
 377:Generated_Source\PSoC5/isr_eoc2.c **** *
 378:Generated_Source\PSoC5/isr_eoc2.c **** *******************************************************************************/
 379:Generated_Source\PSoC5/isr_eoc2.c **** void isr_eoc2_SetPending(void)
 380:Generated_Source\PSoC5/isr_eoc2.c **** {
 493              		.loc 1 380 0
 494              		.cfi_startproc
 495              		@ args = 0, pretend = 0, frame = 0
 496              		@ frame_needed = 1, uses_anonymous_args = 0
 497              		@ link register save eliminated.
 498 0000 80B4     		push	{r7}
 499              		.cfi_def_cfa_offset 4
 500              		.cfi_offset 7, -4
 501 0002 00AF     		add	r7, sp, #0
 502              		.cfi_def_cfa_register 7
 381:Generated_Source\PSoC5/isr_eoc2.c ****     *isr_eoc2_INTC_SET_PD = isr_eoc2__INTC_MASK;
 503              		.loc 1 381 0
 504 0004 034B     		ldr	r3, .L38
 505 0006 4FF40072 		mov	r2, #512
 506 000a 1A60     		str	r2, [r3]
 382:Generated_Source\PSoC5/isr_eoc2.c **** }
 507              		.loc 1 382 0
 508 000c 00BF     		nop
 509 000e BD46     		mov	sp, r7
 510              		.cfi_def_cfa_register 13
 511              		@ sp needed
 512 0010 80BC     		pop	{r7}
 513              		.cfi_restore 7
 514              		.cfi_def_cfa_offset 0
 515 0012 7047     		bx	lr
 516              	.L39:
 517              		.align	2
 518              	.L38:
 519 0014 00E200E0 		.word	-536813056
 520              		.cfi_endproc
 521              	.LFE11:
 522              		.size	isr_eoc2_SetPending, .-isr_eoc2_SetPending
 523              		.section	.text.isr_eoc2_ClearPending,"ax",%progbits
 524              		.align	2
 525              		.global	isr_eoc2_ClearPending
 526              		.thumb
 527              		.thumb_func
 528              		.type	isr_eoc2_ClearPending, %function
 529              	isr_eoc2_ClearPending:
 530              	.LFB12:
ARM GAS  C:\Users\cta10\AppData\Local\Temp\ccK7viPd.s 			page 17


 383:Generated_Source\PSoC5/isr_eoc2.c **** 
 384:Generated_Source\PSoC5/isr_eoc2.c **** 
 385:Generated_Source\PSoC5/isr_eoc2.c **** /*******************************************************************************
 386:Generated_Source\PSoC5/isr_eoc2.c **** * Function Name: isr_eoc2_ClearPending
 387:Generated_Source\PSoC5/isr_eoc2.c **** ********************************************************************************
 388:Generated_Source\PSoC5/isr_eoc2.c **** *
 389:Generated_Source\PSoC5/isr_eoc2.c **** * Summary:
 390:Generated_Source\PSoC5/isr_eoc2.c **** *   Clears a pending interrupt in the interrupt controller.
 391:Generated_Source\PSoC5/isr_eoc2.c **** *
 392:Generated_Source\PSoC5/isr_eoc2.c **** *   Note Some interrupt sources are clear-on-read and require the block 
 393:Generated_Source\PSoC5/isr_eoc2.c **** *   interrupt/status register to be read/cleared with the appropriate block API 
 394:Generated_Source\PSoC5/isr_eoc2.c **** *   (GPIO, UART, and so on). Otherwise the ISR will continue to remain in 
 395:Generated_Source\PSoC5/isr_eoc2.c **** *   pending state even though the interrupt itself is cleared using this API.
 396:Generated_Source\PSoC5/isr_eoc2.c **** *
 397:Generated_Source\PSoC5/isr_eoc2.c **** * Parameters:
 398:Generated_Source\PSoC5/isr_eoc2.c **** *   None
 399:Generated_Source\PSoC5/isr_eoc2.c **** *
 400:Generated_Source\PSoC5/isr_eoc2.c **** * Return:
 401:Generated_Source\PSoC5/isr_eoc2.c **** *   None
 402:Generated_Source\PSoC5/isr_eoc2.c **** *
 403:Generated_Source\PSoC5/isr_eoc2.c **** *******************************************************************************/
 404:Generated_Source\PSoC5/isr_eoc2.c **** void isr_eoc2_ClearPending(void)
 405:Generated_Source\PSoC5/isr_eoc2.c **** {
 531              		.loc 1 405 0
 532              		.cfi_startproc
 533              		@ args = 0, pretend = 0, frame = 0
 534              		@ frame_needed = 1, uses_anonymous_args = 0
 535              		@ link register save eliminated.
 536 0000 80B4     		push	{r7}
 537              		.cfi_def_cfa_offset 4
 538              		.cfi_offset 7, -4
 539 0002 00AF     		add	r7, sp, #0
 540              		.cfi_def_cfa_register 7
 406:Generated_Source\PSoC5/isr_eoc2.c ****     *isr_eoc2_INTC_CLR_PD = isr_eoc2__INTC_MASK;
 541              		.loc 1 406 0
 542 0004 034B     		ldr	r3, .L41
 543 0006 4FF40072 		mov	r2, #512
 544 000a 1A60     		str	r2, [r3]
 407:Generated_Source\PSoC5/isr_eoc2.c **** }
 545              		.loc 1 407 0
 546 000c 00BF     		nop
 547 000e BD46     		mov	sp, r7
 548              		.cfi_def_cfa_register 13
 549              		@ sp needed
 550 0010 80BC     		pop	{r7}
 551              		.cfi_restore 7
 552              		.cfi_def_cfa_offset 0
 553 0012 7047     		bx	lr
 554              	.L42:
 555              		.align	2
 556              	.L41:
 557 0014 80E200E0 		.word	-536812928
 558              		.cfi_endproc
 559              	.LFE12:
 560              		.size	isr_eoc2_ClearPending, .-isr_eoc2_ClearPending
 561              		.text
 562              	.Letext0:
ARM GAS  C:\Users\cta10\AppData\Local\Temp\ccK7viPd.s 			page 18


 563              		.file 2 "c:\\program files (x86)\\cypress\\psoc creator\\4.4\\psoc creator\\import\\gnu\\arm\\5.4.
 564              		.file 3 "c:\\program files (x86)\\cypress\\psoc creator\\4.4\\psoc creator\\import\\gnu\\arm\\5.4.
 565              		.file 4 "Generated_Source\\PSoC5/cytypes.h"