ARM GAS  C:\Users\dpat391\AppData\Local\Temp\ccumOQZU.s 			page 1


   1              		.syntax unified
   2              		.cpu cortex-m3
   3              		.fpu softvfp
   4              		.eabi_attribute 20, 1
   5              		.eabi_attribute 21, 1
   6              		.eabi_attribute 23, 3
   7              		.eabi_attribute 24, 1
   8              		.eabi_attribute 25, 1
   9              		.eabi_attribute 26, 1
  10              		.eabi_attribute 30, 6
  11              		.eabi_attribute 34, 1
  12              		.eabi_attribute 18, 4
  13              		.thumb
  14              		.syntax unified
  15              		.file	"main.c"
  16              		.text
  17              	.Ltext0:
  18              		.cfi_sections	.debug_frame
  19              		.global	ts
  20              		.bss
  21              		.type	ts, %object
  22              		.size	ts, 1
  23              	ts:
  24 0000 00       		.space	1
  25              		.global	ts_enc
  26 0001 00       		.align	1
  27              		.type	ts_enc, %object
  28              		.size	ts_enc, 2
  29              	ts_enc:
  30 0002 0000     		.space	2
  31              		.global	ts_update
  32              		.align	1
  33              		.type	ts_update, %object
  34              		.size	ts_update, 2
  35              	ts_update:
  36 0004 0000     		.space	2
  37              		.global	ts_speed
  38              		.align	1
  39              		.type	ts_speed, %object
  40              		.size	ts_speed, 2
  41              	ts_speed:
  42 0006 0000     		.space	2
  43              		.global	ts_display
  44              		.align	1
  45              		.type	ts_display, %object
  46              		.size	ts_display, 2
  47              	ts_display:
  48 0008 0000     		.space	2
  49              		.global	flag_ts_enc
  50              		.type	flag_ts_enc, %object
  51              		.size	flag_ts_enc, 1
  52              	flag_ts_enc:
  53 000a 00       		.space	1
  54              		.global	flag_ts_update
  55              		.type	flag_ts_update, %object
  56              		.size	flag_ts_update, 1
  57              	flag_ts_update:
ARM GAS  C:\Users\dpat391\AppData\Local\Temp\ccumOQZU.s 			page 2


  58 000b 00       		.space	1
  59              		.global	flag_ts_speed
  60              		.type	flag_ts_speed, %object
  61              		.size	flag_ts_speed, 1
  62              	flag_ts_speed:
  63 000c 00       		.space	1
  64              		.global	flag_ts_display
  65              		.type	flag_ts_display, %object
  66              		.size	flag_ts_display, 1
  67              	flag_ts_display:
  68 000d 00       		.space	1
  69              		.global	flag_rx
  70              		.type	flag_rx, %object
  71              		.size	flag_rx, 1
  72              	flag_rx:
  73 000e 00       		.space	1
  74              		.global	flag_packet
  75              		.type	flag_packet, %object
  76              		.size	flag_packet, 1
  77              	flag_packet:
  78 000f 00       		.space	1
  79              		.global	flag_KB_string
  80              		.type	flag_KB_string, %object
  81              		.size	flag_KB_string, 1
  82              	flag_KB_string:
  83 0010 00       		.space	1
  84              		.global	dataready_flag
  85              		.type	dataready_flag, %object
  86              		.size	dataready_flag, 1
  87              	dataready_flag:
  88 0011 00       		.space	1
  89              		.global	flag_rf_transmission_active
  90              		.data
  91              		.type	flag_rf_transmission_active, %object
  92              		.size	flag_rf_transmission_active, 1
  93              	flag_rf_transmission_active:
  94 0000 0A       		.byte	10
  95              		.global	displaystring
  96 0001 000000   		.align	2
  97              		.type	displaystring, %object
  98              		.size	displaystring, 64
  99              	displaystring:
 100 0004 43533330 		.ascii	"CS301 2016\012\000"
 100      31203230 
 100      31360A00 
 101 0010 00000000 		.space	52
 101      00000000 
 101      00000000 
 101      00000000 
 101      00000000 
 102              		.comm	line,64,4
 103              		.comm	entry,64,4
 104              		.comm	usbBuffer,64,4
 105              		.comm	system_state,32,4
 106              		.bss
 107 0012 0000     		.align	2
 108              	enc_last:
ARM GAS  C:\Users\dpat391\AppData\Local\Temp\ccumOQZU.s 			page 3


 109 0014 00000000 		.space	4
 110              		.align	2
 111              	enc_pos:
 112 0018 00000000 		.space	4
 113              		.align	2
 114              	spd_cps:
 115 001c 00000000 		.space	4
 116              		.align	2
 117              	spd_rps:
 118 0020 00000000 		.space	4
 119              		.align	2
 120              	spd_rpm:
 121 0024 00000000 		.space	4
 122              	flag_print:
 123 0028 00       		.space	1
 124              		.global	front_left_flag
 125              		.type	front_left_flag, %object
 126              		.size	front_left_flag, 1
 127              	front_left_flag:
 128 0029 00       		.space	1
 129              		.global	front_right_flag
 130              		.type	front_right_flag, %object
 131              		.size	front_right_flag, 1
 132              	front_right_flag:
 133 002a 00       		.space	1
 134              		.global	mid_left_flag
 135              		.type	mid_left_flag, %object
 136              		.size	mid_left_flag, 1
 137              	mid_left_flag:
 138 002b 00       		.space	1
 139              		.global	mid_right_flag
 140              		.type	mid_right_flag, %object
 141              		.size	mid_right_flag, 1
 142              	mid_right_flag:
 143 002c 00       		.space	1
 144              		.global	left_wing_flag
 145              		.type	left_wing_flag, %object
 146              		.size	left_wing_flag, 1
 147              	left_wing_flag:
 148 002d 00       		.space	1
 149              		.global	right_wing_flag
 150              		.type	right_wing_flag, %object
 151              		.size	right_wing_flag, 1
 152              	right_wing_flag:
 153 002e 00       		.space	1
 154 002f 00       		.align	1
 155              	left_wheel_val:
 156 0030 0000     		.space	2
 157              		.align	1
 158              	right_wheel_val:
 159 0032 0000     		.space	2
 160              		.align	1
 161              	wheel_sum:
 162 0034 0000     		.space	2
 163              		.comm	change,1,1
 164              		.global	left_pwm
 165              		.data
ARM GAS  C:\Users\dpat391\AppData\Local\Temp\ccumOQZU.s 			page 4


 166              		.type	left_pwm, %object
 167              		.size	left_pwm, 1
 168              	left_pwm:
 169 0044 B0       		.byte	-80
 170              		.global	right_pwm
 171              		.type	right_pwm, %object
 172              		.size	right_pwm, 1
 173              	right_pwm:
 174 0045 B0       		.byte	-80
 175              		.global	Kp
 176 0046 0000     		.align	2
 177              		.type	Kp, %object
 178              		.size	Kp, 4
 179              	Kp:
 180 0048 0000003F 		.word	1056964608
 181              		.global	Ki
 182              		.align	2
 183              		.type	Ki, %object
 184              		.size	Ki, 4
 185              	Ki:
 186 004c CDCCCC3D 		.word	1036831949
 187              		.global	Kd
 188              		.align	2
 189              		.type	Kd, %object
 190              		.size	Kd, 4
 191              	Kd:
 192 0050 CDCC4C3D 		.word	1028443341
 193              		.bss
 194 0036 0000     		.align	2
 195              	integral:
 196 0038 00000000 		.space	4
 197              		.align	2
 198              	prev_error:
 199 003c 00000000 		.space	4
 200              		.global	timer_flag
 201              		.type	timer_flag, %object
 202              		.size	timer_flag, 1
 203              	timer_flag:
 204 0040 00       		.space	1
 205              		.global	edges
 206 0041 000000   		.align	2
 207              		.type	edges, %object
 208              		.size	edges, 6
 209              	edges:
 210 0044 00000000 		.space	6
 210      0000
 211              		.global	movement_finite_state
 212              		.data
 213              		.type	movement_finite_state, %object
 214              		.size	movement_finite_state, 1
 215              	movement_finite_state:
 216 0054 03       		.byte	3
 217              		.comm	current_move,1,1
 218              		.section	.text.Timer_TS_ISR_Handler,"ax",%progbits
 219              		.align	2
 220              		.global	Timer_TS_ISR_Handler
 221              		.thumb
ARM GAS  C:\Users\dpat391\AppData\Local\Temp\ccumOQZU.s 			page 5


 222              		.thumb_func
 223              		.type	Timer_TS_ISR_Handler, %function
 224              	Timer_TS_ISR_Handler:
 225              	.LFB64:
 226              		.file 1 "main.c"
   1:main.c        **** /* ========================================
   2:main.c        ****  * Fully working code: 
   3:main.c        ****  * PWM      : 
   4:main.c        ****  * Encoder  : 
   5:main.c        ****  * ADC      :
   6:main.c        ****  * USB      : port displays speed and position.
   7:main.c        ****  * CMD: "PW xx"
   8:main.c        ****  * Copyright Univ of Auckland, 2016
   9:main.c        ****  * All Rights Reserved
  10:main.c        ****  * UNPUBLISHED, LICENSED SOFTWARE.
  11:main.c        ****  *
  12:main.c        ****  * CONFIDENTIAL AND PROPRIETARY INFORMATION
  13:main.c        ****  * WHICH IS THE PROPERTY OF Univ of Auckland.
  14:main.c        ****  *
  15:main.c        ****  * ========================================
  16:main.c        **** */
  17:main.c        **** 
  18:main.c        **** #include <project.h>
  19:main.c        **** #include <stdio.h>
  20:main.c        **** #include <string.h>
  21:main.c        **** #include <stdlib.h>
  22:main.c        **** #include <math.h>
  23:main.c        **** 
  24:main.c        **** #include "main.h"
  25:main.c        **** #include "defines.h"     
  26:main.c        **** #include "vars.h"
  27:main.c        **** #include "isr_1.h"
  28:main.c        **** #include "SENSORS_READ.h"
  29:main.c        **** #include "MOVEMENT.h"
  30:main.c        **** 
  31:main.c        **** 
  32:main.c        **** #define ENCODER_CPR 500
  33:main.c        **** #define QUAD_MULT 4        
  34:main.c        **** #define COUNTS_PER_REV (ENCODER_CPR * QUAD_MULT)
  35:main.c        **** 
  36:main.c        **** #define TIMER_BASE_HZ 100000UL
  37:main.c        **** 
  38:main.c        **** #define PWM_FWD  168
  39:main.c        **** #define PWM_STOP 127
  40:main.c        **** 
  41:main.c        **** static volatile int32_t enc_last = 0;      
  42:main.c        **** static volatile int32_t enc_pos  = 0;      
  43:main.c        **** static volatile float   spd_cps  = 0.0f;   
  44:main.c        **** static volatile float   spd_rps  = 0.0f;   
  45:main.c        **** static volatile float   spd_rpm  = 0.0f;   
  46:main.c        **** 
  47:main.c        **** static volatile uint8_t flag_print = 0;
  48:main.c        **** 
  49:main.c        **** volatile uint8 front_left_flag = 0;
  50:main.c        **** volatile uint8 front_right_flag = 0;
  51:main.c        **** volatile uint8 mid_left_flag = 0;
  52:main.c        **** volatile uint8 mid_right_flag = 0;
ARM GAS  C:\Users\dpat391\AppData\Local\Temp\ccumOQZU.s 			page 6


  53:main.c        **** volatile uint8 left_wing_flag = 0;
  54:main.c        **** volatile uint8 right_wing_flag = 0;
  55:main.c        **** 
  56:main.c        **** static volatile int16 left_wheel_val; // positive
  57:main.c        **** static volatile int16 right_wheel_val;//negative
  58:main.c        **** static volatile int16 wheel_sum; // when wheel_sum is postive,left wheel is faster. otherwise. righ
  59:main.c        **** uint8_t change;
  60:main.c        **** uint8_t left_pwm = 176;
  61:main.c        **** uint8_t right_pwm = 176;
  62:main.c        **** 
  63:main.c        **** 
  64:main.c        **** float Kp = 0.5;
  65:main.c        **** float Ki = 0.1;
  66:main.c        **** float Kd = 0.05;
  67:main.c        **** 
  68:main.c        **** static float integral = 0;
  69:main.c        **** static float prev_error = 0;
  70:main.c        **** 
  71:main.c        **** uint8_t timer_flag = 0;
  72:main.c        **** edge_pack_t edges = {0,0,0,0, 0, 0};
  73:main.c        **** MovementFiniteState movement_finite_state = STOP_STATE;
  74:main.c        **** MovementState current_move;
  75:main.c        **** 
  76:main.c        **** // static void print_telemetry(void);
  77:main.c        **** void usbPutString(char *s);
  78:main.c        **** void usbPutChar(char c);
  79:main.c        **** void handle_usb();
  80:main.c        **** 
  81:main.c        **** /* Timer ISR */
  82:main.c        **** CY_ISR(Timer_TS_ISR_Handler)
  83:main.c        **** {
 227              		.loc 1 83 0
 228              		.cfi_startproc
 229              		@ args = 0, pretend = 0, frame = 0
 230              		@ frame_needed = 1, uses_anonymous_args = 0
 231              		@ link register save eliminated.
 232 0000 80B4     		push	{r7}
 233              		.cfi_def_cfa_offset 4
 234              		.cfi_offset 7, -4
 235 0002 00AF     		add	r7, sp, #0
 236              		.cfi_def_cfa_register 7
  84:main.c        ****     timer_flag = 1;    
 237              		.loc 1 84 0
 238 0004 034B     		ldr	r3, .L2
 239 0006 0122     		movs	r2, #1
 240 0008 1A70     		strb	r2, [r3]
  85:main.c        ****     }
 241              		.loc 1 85 0
 242 000a 00BF     		nop
 243 000c BD46     		mov	sp, r7
 244              		.cfi_def_cfa_register 13
 245              		@ sp needed
 246 000e 80BC     		pop	{r7}
 247              		.cfi_restore 7
 248              		.cfi_def_cfa_offset 0
 249 0010 7047     		bx	lr
 250              	.L3:
ARM GAS  C:\Users\dpat391\AppData\Local\Temp\ccumOQZU.s 			page 7


 251 0012 00BF     		.align	2
 252              	.L2:
 253 0014 00000000 		.word	timer_flag
 254              		.cfi_endproc
 255              	.LFE64:
 256              		.size	Timer_TS_ISR_Handler, .-Timer_TS_ISR_Handler
 257              		.global	__aeabi_i2f
 258              		.global	__aeabi_fadd
 259              		.global	__aeabi_fsub
 260              		.global	__aeabi_fmul
 261              		.global	__aeabi_fcmpgt
 262              		.global	__aeabi_fcmplt
 263              		.global	__aeabi_f2iz
 264              		.section	.text.main,"ax",%progbits
 265              		.align	2
 266              		.global	main
 267              		.thumb
 268              		.thumb_func
 269              		.type	main, %function
 270              	main:
 271              	.LFB65:
  86:main.c        **** 
  87:main.c        **** 
  88:main.c        **** // helpers
  89:main.c        **** #define S_ACTIVE(pin_read) ((pin_read) == 0u)   // active-low -> 1 when line
  90:main.c        **** 
  91:main.c        **** // active-low: 0 = on line, 1 = off line
  92:main.c        **** #define S_ACTIVE(pin_read) ((pin_read) == 0u)
  93:main.c        **** 
  94:main.c        **** /* ================= Main ================= */
  95:main.c        **** int main(void)
  96:main.c        **** {
 272              		.loc 1 96 0
 273              		.cfi_startproc
 274              		@ args = 0, pretend = 0, frame = 16
 275              		@ frame_needed = 1, uses_anonymous_args = 0
 276 0000 90B5     		push	{r4, r7, lr}
 277              		.cfi_def_cfa_offset 12
 278              		.cfi_offset 4, -12
 279              		.cfi_offset 7, -8
 280              		.cfi_offset 14, -4
 281 0002 85B0     		sub	sp, sp, #20
 282              		.cfi_def_cfa_offset 32
 283 0004 00AF     		add	r7, sp, #0
 284              		.cfi_def_cfa_register 7
  97:main.c        ****     CyGlobalIntEnable;
 285              		.loc 1 97 0
 286              		.syntax unified
 287              	@ 97 "main.c" 1
 288 0006 62B6     		CPSIE   i
 289              	@ 0 "" 2
  98:main.c        ****     PWM_1_Start();
 290              		.loc 1 98 0
 291              		.thumb
 292              		.syntax unified
 293 0008 FFF7FEFF 		bl	PWM_1_Start
  99:main.c        ****     PWM_2_Start();
ARM GAS  C:\Users\dpat391\AppData\Local\Temp\ccumOQZU.s 			page 8


 294              		.loc 1 99 0
 295 000c FFF7FEFF 		bl	PWM_2_Start
 100:main.c        ****     
 101:main.c        ****     isr_1_StartEx(Timer_TS_ISR_Handler);   // hook first
 296              		.loc 1 101 0
 297 0010 7648     		ldr	r0, .L26
 298 0012 FFF7FEFF 		bl	isr_1_StartEx
 102:main.c        ****     Timer_TS_Start();                      // then start
 299              		.loc 1 102 0
 300 0016 FFF7FEFF 		bl	Timer_TS_Start
 103:main.c        ****     
 104:main.c        ****     front_left_Start();
 301              		.loc 1 104 0
 302 001a FFF7FEFF 		bl	front_left_Start
 105:main.c        ****     front_right_Start();
 303              		.loc 1 105 0
 304 001e FFF7FEFF 		bl	front_right_Start
 106:main.c        ****     mid_left_Start();
 305              		.loc 1 106 0
 306 0022 FFF7FEFF 		bl	mid_left_Start
 107:main.c        ****     mid_right_Start();
 307              		.loc 1 107 0
 308 0026 FFF7FEFF 		bl	mid_right_Start
 108:main.c        ****     
 109:main.c        ****     QuadDec_M1_Start();
 309              		.loc 1 109 0
 310 002a FFF7FEFF 		bl	QuadDec_M1_Start
 110:main.c        ****     QuadDec_M2_Start();
 311              		.loc 1 110 0
 312 002e FFF7FEFF 		bl	QuadDec_M2_Start
 111:main.c        ****     QuadDec_M1_SetCounter(0);
 313              		.loc 1 111 0
 314 0032 0020     		movs	r0, #0
 315 0034 FFF7FEFF 		bl	QuadDec_M1_SetCounter
 112:main.c        ****     QuadDec_M2_SetCounter(0);
 316              		.loc 1 112 0
 317 0038 0020     		movs	r0, #0
 318 003a FFF7FEFF 		bl	QuadDec_M2_SetCounter
 113:main.c        **** 
 114:main.c        **** #ifdef USE_USB
 115:main.c        ****    USBUART_Start(0, USBUART_5V_OPERATION);
 319              		.loc 1 115 0
 320 003e 0121     		movs	r1, #1
 321 0040 0020     		movs	r0, #0
 322 0042 FFF7FEFF 		bl	USBUART_Start
 323              	.L20:
 116:main.c        **** #endif
 117:main.c        **** 
 118:main.c        **** 
 119:main.c        ****     // enable isr for edge detection
 120:main.c        **** 
 121:main.c        **** for(;;) {
 122:main.c        ****     //update finite state machine
 123:main.c        ****     current_move = GetMovement();
 324              		.loc 1 123 0
 325 0046 FFF7FEFF 		bl	GetMovement
 326 004a 0346     		mov	r3, r0
ARM GAS  C:\Users\dpat391\AppData\Local\Temp\ccumOQZU.s 			page 9


 327 004c 1A46     		mov	r2, r3
 328 004e 684B     		ldr	r3, .L26+4
 329 0050 1A70     		strb	r2, [r3]
 124:main.c        ****     if (current_move == STRAIGHT)
 330              		.loc 1 124 0
 331 0052 674B     		ldr	r3, .L26+4
 332 0054 1B78     		ldrb	r3, [r3]	@ zero_extendqisi2
 333 0056 002B     		cmp	r3, #0
 334 0058 03D1     		bne	.L5
 125:main.c        ****     {
 126:main.c        ****        movement_finite_state = STRAIGHT_STATE;
 335              		.loc 1 126 0
 336 005a 664B     		ldr	r3, .L26+8
 337 005c 0022     		movs	r2, #0
 338 005e 1A70     		strb	r2, [r3]
 339 0060 06E0     		b	.L6
 340              	.L5:
 127:main.c        ****     } else if(current_move == STOP){
 341              		.loc 1 127 0
 342 0062 634B     		ldr	r3, .L26+4
 343 0064 1B78     		ldrb	r3, [r3]	@ zero_extendqisi2
 344 0066 052B     		cmp	r3, #5
 345 0068 02D1     		bne	.L6
 128:main.c        ****        movement_finite_state = STOP_STATE;
 346              		.loc 1 128 0
 347 006a 624B     		ldr	r3, .L26+8
 348 006c 0322     		movs	r2, #3
 349 006e 1A70     		strb	r2, [r3]
 350              	.L6:
 129:main.c        ****     }
 130:main.c        ****       
 131:main.c        ****     //process finite state machine
 132:main.c        ****     switch (movement_finite_state) {
 351              		.loc 1 132 0
 352 0070 604B     		ldr	r3, .L26+8
 353 0072 1B78     		ldrb	r3, [r3]	@ zero_extendqisi2
 354 0074 032B     		cmp	r3, #3
 355 0076 E6D8     		bhi	.L20
 356 0078 01A2     		adr	r2, .L9
 357 007a 52F823F0 		ldr	pc, [r2, r3, lsl #2]
 358 007e 00BF     		.p2align 2
 359              	.L9:
 360 0080 9F000000 		.word	.L8+1
 361 0084 47000000 		.word	.L20+1
 362 0088 47000000 		.word	.L20+1
 363 008c 91000000 		.word	.L12+1
 364              		.p2align 1
 365              	.L12:
 133:main.c        ****     case STOP_STATE:
 134:main.c        ****         // code block
 135:main.c        ****         PWM_1_WriteCompare(127);
 366              		.loc 1 135 0
 367 0090 7F20     		movs	r0, #127
 368 0092 FFF7FEFF 		bl	PWM_1_WriteCompare
 136:main.c        ****         PWM_2_WriteCompare(127);
 369              		.loc 1 136 0
 370 0096 7F20     		movs	r0, #127
ARM GAS  C:\Users\dpat391\AppData\Local\Temp\ccumOQZU.s 			page 10


 371 0098 FFF7FEFF 		bl	PWM_2_WriteCompare
 137:main.c        ****         break;
 372              		.loc 1 137 0
 373 009c A5E0     		b	.L7
 374              	.L8:
 138:main.c        ****     case STRAIGHT_STATE:
 139:main.c        ****         if(timer_flag )
 375              		.loc 1 139 0
 376 009e 564B     		ldr	r3, .L26+12
 377 00a0 1B78     		ldrb	r3, [r3]	@ zero_extendqisi2
 378 00a2 002B     		cmp	r3, #0
 379 00a4 00F0A080 		beq	.L25
 380              	.LBB2:
 140:main.c        ****         {
 141:main.c        **** 
 142:main.c        ****         int error = QuadDec_M1_GetCounter() + QuadDec_M2_GetCounter();
 381              		.loc 1 142 0
 382 00a8 FFF7FEFF 		bl	QuadDec_M1_GetCounter
 383 00ac 0346     		mov	r3, r0
 384 00ae 1C46     		mov	r4, r3
 385 00b0 FFF7FEFF 		bl	QuadDec_M2_GetCounter
 386 00b4 0346     		mov	r3, r0
 387 00b6 2344     		add	r3, r3, r4
 388 00b8 FB60     		str	r3, [r7, #12]
 143:main.c        **** 
 144:main.c        ****         // PID
 145:main.c        ****         integral += error;
 389              		.loc 1 145 0
 390 00ba F868     		ldr	r0, [r7, #12]
 391 00bc FFF7FEFF 		bl	__aeabi_i2f
 392 00c0 0246     		mov	r2, r0
 393 00c2 4E4B     		ldr	r3, .L26+16
 394 00c4 1B68     		ldr	r3, [r3]	@ float
 395 00c6 1946     		mov	r1, r3
 396 00c8 1046     		mov	r0, r2
 397 00ca FFF7FEFF 		bl	__aeabi_fadd
 398 00ce 0346     		mov	r3, r0
 399 00d0 1A46     		mov	r2, r3
 400 00d2 4A4B     		ldr	r3, .L26+16
 401 00d4 1A60     		str	r2, [r3]	@ float
 146:main.c        ****         float derivative = error - prev_error;
 402              		.loc 1 146 0
 403 00d6 F868     		ldr	r0, [r7, #12]
 404 00d8 FFF7FEFF 		bl	__aeabi_i2f
 405 00dc 0246     		mov	r2, r0
 406 00de 484B     		ldr	r3, .L26+20
 407 00e0 1B68     		ldr	r3, [r3]	@ float
 408 00e2 1946     		mov	r1, r3
 409 00e4 1046     		mov	r0, r2
 410 00e6 FFF7FEFF 		bl	__aeabi_fsub
 411 00ea 0346     		mov	r3, r0
 412 00ec BB60     		str	r3, [r7, #8]	@ float
 147:main.c        ****         float output = Kp * error + Ki * integral + Kd * derivative;
 413              		.loc 1 147 0
 414 00ee F868     		ldr	r0, [r7, #12]
 415 00f0 FFF7FEFF 		bl	__aeabi_i2f
 416 00f4 0246     		mov	r2, r0
ARM GAS  C:\Users\dpat391\AppData\Local\Temp\ccumOQZU.s 			page 11


 417 00f6 434B     		ldr	r3, .L26+24
 418 00f8 1B68     		ldr	r3, [r3]	@ float
 419 00fa 1946     		mov	r1, r3
 420 00fc 1046     		mov	r0, r2
 421 00fe FFF7FEFF 		bl	__aeabi_fmul
 422 0102 0346     		mov	r3, r0
 423 0104 1C46     		mov	r4, r3
 424 0106 404B     		ldr	r3, .L26+28
 425 0108 1A68     		ldr	r2, [r3]	@ float
 426 010a 3C4B     		ldr	r3, .L26+16
 427 010c 1B68     		ldr	r3, [r3]	@ float
 428 010e 1946     		mov	r1, r3
 429 0110 1046     		mov	r0, r2
 430 0112 FFF7FEFF 		bl	__aeabi_fmul
 431 0116 0346     		mov	r3, r0
 432 0118 1946     		mov	r1, r3
 433 011a 2046     		mov	r0, r4
 434 011c FFF7FEFF 		bl	__aeabi_fadd
 435 0120 0346     		mov	r3, r0
 436 0122 1C46     		mov	r4, r3
 437 0124 394B     		ldr	r3, .L26+32
 438 0126 1B68     		ldr	r3, [r3]	@ float
 439 0128 B968     		ldr	r1, [r7, #8]	@ float
 440 012a 1846     		mov	r0, r3
 441 012c FFF7FEFF 		bl	__aeabi_fmul
 442 0130 0346     		mov	r3, r0
 443 0132 1946     		mov	r1, r3
 444 0134 2046     		mov	r0, r4
 445 0136 FFF7FEFF 		bl	__aeabi_fadd
 446 013a 0346     		mov	r3, r0
 447 013c 7B60     		str	r3, [r7, #4]	@ float
 148:main.c        ****         
 149:main.c        ****         if (integral > 500) integral = 500;
 448              		.loc 1 149 0
 449 013e 2F4B     		ldr	r3, .L26+16
 450 0140 1B68     		ldr	r3, [r3]	@ float
 451 0142 3349     		ldr	r1, .L26+36
 452 0144 1846     		mov	r0, r3
 453 0146 FFF7FEFF 		bl	__aeabi_fcmpgt
 454 014a 0346     		mov	r3, r0
 455 014c 002B     		cmp	r3, #0
 456 014e 02D0     		beq	.L14
 457              		.loc 1 149 0 is_stmt 0 discriminator 1
 458 0150 2A4B     		ldr	r3, .L26+16
 459 0152 2F4A     		ldr	r2, .L26+36
 460 0154 1A60     		str	r2, [r3]	@ float
 461              	.L14:
 150:main.c        ****         if (integral < -500) integral = -500;
 462              		.loc 1 150 0 is_stmt 1
 463 0156 294B     		ldr	r3, .L26+16
 464 0158 1B68     		ldr	r3, [r3]	@ float
 465 015a 2E49     		ldr	r1, .L26+40
 466 015c 1846     		mov	r0, r3
 467 015e FFF7FEFF 		bl	__aeabi_fcmplt
 468 0162 0346     		mov	r3, r0
 469 0164 002B     		cmp	r3, #0
 470 0166 02D0     		beq	.L16
ARM GAS  C:\Users\dpat391\AppData\Local\Temp\ccumOQZU.s 			page 12


 471              		.loc 1 150 0 is_stmt 0 discriminator 1
 472 0168 244B     		ldr	r3, .L26+16
 473 016a 2A4A     		ldr	r2, .L26+40
 474 016c 1A60     		str	r2, [r3]	@ float
 475              	.L16:
 151:main.c        **** 
 152:main.c        ****         // Adjust PWM values
 153:main.c        ****         left_pwm  -= (int)output;
 476              		.loc 1 153 0 is_stmt 1
 477 016e 2A4B     		ldr	r3, .L26+44
 478 0170 1C78     		ldrb	r4, [r3]	@ zero_extendqisi2
 479 0172 7868     		ldr	r0, [r7, #4]	@ float
 480 0174 FFF7FEFF 		bl	__aeabi_f2iz
 481 0178 0346     		mov	r3, r0
 482 017a DBB2     		uxtb	r3, r3
 483 017c E31A     		subs	r3, r4, r3
 484 017e DAB2     		uxtb	r2, r3
 485 0180 254B     		ldr	r3, .L26+44
 486 0182 1A70     		strb	r2, [r3]
 154:main.c        ****         right_pwm += (int)output;
 487              		.loc 1 154 0
 488 0184 7868     		ldr	r0, [r7, #4]	@ float
 489 0186 FFF7FEFF 		bl	__aeabi_f2iz
 490 018a 0346     		mov	r3, r0
 491 018c DAB2     		uxtb	r2, r3
 492 018e 234B     		ldr	r3, .L26+48
 493 0190 1B78     		ldrb	r3, [r3]	@ zero_extendqisi2
 494 0192 1344     		add	r3, r3, r2
 495 0194 DAB2     		uxtb	r2, r3
 496 0196 214B     		ldr	r3, .L26+48
 497 0198 1A70     		strb	r2, [r3]
 155:main.c        **** 
 156:main.c        ****         // Clamp
 157:main.c        ****         if (left_pwm < PID_PWM_MIN) left_pwm = PID_PWM_MIN;
 498              		.loc 1 157 0
 499 019a 1F4B     		ldr	r3, .L26+44
 500 019c 1B78     		ldrb	r3, [r3]	@ zero_extendqisi2
 501 019e 7E2B     		cmp	r3, #126
 502 01a0 02D8     		bhi	.L23
 503              		.loc 1 157 0 is_stmt 0 discriminator 1
 504 01a2 1D4B     		ldr	r3, .L26+44
 505 01a4 7F22     		movs	r2, #127
 506 01a6 1A70     		strb	r2, [r3]
 507              	.L23:
 158:main.c        ****         if (left_pwm > PID_PWM_MAX) left_pwm = PID_PWM_MAX;
 159:main.c        ****         if (right_pwm < PID_PWM_MIN) right_pwm = PID_PWM_MIN;
 508              		.loc 1 159 0 is_stmt 1
 509 01a8 1C4B     		ldr	r3, .L26+48
 510 01aa 1B78     		ldrb	r3, [r3]	@ zero_extendqisi2
 511 01ac 7E2B     		cmp	r3, #126
 512 01ae 02D8     		bhi	.L24
 513              		.loc 1 159 0 is_stmt 0 discriminator 1
 514 01b0 1A4B     		ldr	r3, .L26+48
 515 01b2 7F22     		movs	r2, #127
 516 01b4 1A70     		strb	r2, [r3]
 517              	.L24:
 160:main.c        ****         if (right_pwm > PID_PWM_MAX) right_pwm = PID_PWM_MAX;
ARM GAS  C:\Users\dpat391\AppData\Local\Temp\ccumOQZU.s 			page 13


 161:main.c        **** 
 162:main.c        ****         // Reset counters
 163:main.c        ****         QuadDec_M1_SetCounter(0);
 518              		.loc 1 163 0 is_stmt 1
 519 01b6 0020     		movs	r0, #0
 520 01b8 FFF7FEFF 		bl	QuadDec_M1_SetCounter
 164:main.c        ****         QuadDec_M2_SetCounter(0);
 521              		.loc 1 164 0
 522 01bc 0020     		movs	r0, #0
 523 01be FFF7FEFF 		bl	QuadDec_M2_SetCounter
 165:main.c        **** 
 166:main.c        ****         PWM_1_WriteCompare(left_pwm);
 524              		.loc 1 166 0
 525 01c2 154B     		ldr	r3, .L26+44
 526 01c4 1B78     		ldrb	r3, [r3]	@ zero_extendqisi2
 527 01c6 1846     		mov	r0, r3
 528 01c8 FFF7FEFF 		bl	PWM_1_WriteCompare
 167:main.c        ****         PWM_2_WriteCompare(right_pwm);
 529              		.loc 1 167 0
 530 01cc 134B     		ldr	r3, .L26+48
 531 01ce 1B78     		ldrb	r3, [r3]	@ zero_extendqisi2
 532 01d0 1846     		mov	r0, r3
 533 01d2 FFF7FEFF 		bl	PWM_2_WriteCompare
 168:main.c        **** 
 169:main.c        ****         prev_error = error;
 534              		.loc 1 169 0
 535 01d6 F868     		ldr	r0, [r7, #12]
 536 01d8 FFF7FEFF 		bl	__aeabi_i2f
 537 01dc 0246     		mov	r2, r0
 538 01de 084B     		ldr	r3, .L26+20
 539 01e0 1A60     		str	r2, [r3]	@ float
 170:main.c        ****         timer_flag = 0;       
 540              		.loc 1 170 0
 541 01e2 054B     		ldr	r3, .L26+12
 542 01e4 0022     		movs	r2, #0
 543 01e6 1A70     		strb	r2, [r3]
 544              	.L25:
 545              	.LBE2:
 171:main.c        ****         }
 172:main.c        ****         // code block
 173:main.c        ****         break;
 546              		.loc 1 173 0
 547 01e8 00BF     		nop
 548              	.L7:
 174:main.c        ****     case LEFT_TURN_STATE:
 175:main.c        ****         break;
 176:main.c        ****     case RIGHT_TURN_STATE:
 177:main.c        ****         break;
 178:main.c        **** 
 179:main.c        ****     // code block
 180:main.c        **** }
 181:main.c        ****     
 182:main.c        **** 
 183:main.c        **** }
 549              		.loc 1 183 0 discriminator 1
 550 01ea 2CE7     		b	.L20
 551              	.L27:
ARM GAS  C:\Users\dpat391\AppData\Local\Temp\ccumOQZU.s 			page 14


 552              		.align	2
 553              	.L26:
 554 01ec 00000000 		.word	Timer_TS_ISR_Handler
 555 01f0 00000000 		.word	current_move
 556 01f4 00000000 		.word	movement_finite_state
 557 01f8 00000000 		.word	timer_flag
 558 01fc 38000000 		.word	integral
 559 0200 3C000000 		.word	prev_error
 560 0204 00000000 		.word	Kp
 561 0208 00000000 		.word	Ki
 562 020c 00000000 		.word	Kd
 563 0210 0000FA43 		.word	1140457472
 564 0214 0000FAC3 		.word	-1007026176
 565 0218 00000000 		.word	left_pwm
 566 021c 00000000 		.word	right_pwm
 567              		.cfi_endproc
 568              	.LFE65:
 569              		.size	main, .-main
 570              		.section	.text.usbPutString,"ax",%progbits
 571              		.align	2
 572              		.global	usbPutString
 573              		.thumb
 574              		.thumb_func
 575              		.type	usbPutString, %function
 576              	usbPutString:
 577              	.LFB66:
 184:main.c        **** 
 185:main.c        **** }
 186:main.c        ****  
 187:main.c        **** 
 188:main.c        **** 
 189:main.c        **** void usbPutString(char *s)
 190:main.c        **** {
 578              		.loc 1 190 0
 579              		.cfi_startproc
 580              		@ args = 0, pretend = 0, frame = 8
 581              		@ frame_needed = 1, uses_anonymous_args = 0
 582 0000 80B5     		push	{r7, lr}
 583              		.cfi_def_cfa_offset 8
 584              		.cfi_offset 7, -8
 585              		.cfi_offset 14, -4
 586 0002 82B0     		sub	sp, sp, #8
 587              		.cfi_def_cfa_offset 16
 588 0004 00AF     		add	r7, sp, #0
 589              		.cfi_def_cfa_register 7
 590 0006 7860     		str	r0, [r7, #4]
 191:main.c        **** #ifdef USE_USB
 192:main.c        ****     while (USBUART_CDCIsReady() == 0) {}
 591              		.loc 1 192 0
 592 0008 00BF     		nop
 593              	.L29:
 594              		.loc 1 192 0 is_stmt 0 discriminator 1
 595 000a FFF7FEFF 		bl	USBUART_CDCIsReady
 596 000e 0346     		mov	r3, r0
 597 0010 002B     		cmp	r3, #0
 598 0012 FAD0     		beq	.L29
 193:main.c        ****     s[63] = '\0';
ARM GAS  C:\Users\dpat391\AppData\Local\Temp\ccumOQZU.s 			page 15


 599              		.loc 1 193 0 is_stmt 1
 600 0014 7B68     		ldr	r3, [r7, #4]
 601 0016 3F33     		adds	r3, r3, #63
 602 0018 0022     		movs	r2, #0
 603 001a 1A70     		strb	r2, [r3]
 194:main.c        ****     s[62] = '!';              
 604              		.loc 1 194 0
 605 001c 7B68     		ldr	r3, [r7, #4]
 606 001e 3E33     		adds	r3, r3, #62
 607 0020 2122     		movs	r2, #33
 608 0022 1A70     		strb	r2, [r3]
 195:main.c        ****     USBUART_PutData((uint8*)s, (uint16)strlen(s));
 609              		.loc 1 195 0
 610 0024 7868     		ldr	r0, [r7, #4]
 611 0026 FFF7FEFF 		bl	strlen
 612 002a 0346     		mov	r3, r0
 613 002c 9BB2     		uxth	r3, r3
 614 002e 1946     		mov	r1, r3
 615 0030 7868     		ldr	r0, [r7, #4]
 616 0032 FFF7FEFF 		bl	USBUART_PutData
 196:main.c        **** #else
 197:main.c        ****     (void)s;
 198:main.c        **** #endif
 199:main.c        **** }
 617              		.loc 1 199 0
 618 0036 00BF     		nop
 619 0038 0837     		adds	r7, r7, #8
 620              		.cfi_def_cfa_offset 8
 621 003a BD46     		mov	sp, r7
 622              		.cfi_def_cfa_register 13
 623              		@ sp needed
 624 003c 80BD     		pop	{r7, pc}
 625              		.cfi_endproc
 626              	.LFE66:
 627              		.size	usbPutString, .-usbPutString
 628 003e 00BF     		.section	.text.usbPutChar,"ax",%progbits
 629              		.align	2
 630              		.global	usbPutChar
 631              		.thumb
 632              		.thumb_func
 633              		.type	usbPutChar, %function
 634              	usbPutChar:
 635              	.LFB67:
 200:main.c        **** 
 201:main.c        **** void usbPutChar(char c)
 202:main.c        **** {
 636              		.loc 1 202 0
 637              		.cfi_startproc
 638              		@ args = 0, pretend = 0, frame = 8
 639              		@ frame_needed = 1, uses_anonymous_args = 0
 640 0000 80B5     		push	{r7, lr}
 641              		.cfi_def_cfa_offset 8
 642              		.cfi_offset 7, -8
 643              		.cfi_offset 14, -4
 644 0002 82B0     		sub	sp, sp, #8
 645              		.cfi_def_cfa_offset 16
 646 0004 00AF     		add	r7, sp, #0
ARM GAS  C:\Users\dpat391\AppData\Local\Temp\ccumOQZU.s 			page 16


 647              		.cfi_def_cfa_register 7
 648 0006 0346     		mov	r3, r0
 649 0008 FB71     		strb	r3, [r7, #7]
 203:main.c        **** #ifdef USE_USB
 204:main.c        ****     while (USBUART_CDCIsReady() == 0) {}
 650              		.loc 1 204 0
 651 000a 00BF     		nop
 652              	.L31:
 653              		.loc 1 204 0 is_stmt 0 discriminator 1
 654 000c FFF7FEFF 		bl	USBUART_CDCIsReady
 655 0010 0346     		mov	r3, r0
 656 0012 002B     		cmp	r3, #0
 657 0014 FAD0     		beq	.L31
 205:main.c        ****     USBUART_PutChar((uint8)c);
 658              		.loc 1 205 0 is_stmt 1
 659 0016 FB79     		ldrb	r3, [r7, #7]	@ zero_extendqisi2
 660 0018 1846     		mov	r0, r3
 661 001a FFF7FEFF 		bl	USBUART_PutChar
 206:main.c        **** #else
 207:main.c        ****     (void)c;
 208:main.c        **** #endif
 209:main.c        **** }
 662              		.loc 1 209 0
 663 001e 00BF     		nop
 664 0020 0837     		adds	r7, r7, #8
 665              		.cfi_def_cfa_offset 8
 666 0022 BD46     		mov	sp, r7
 667              		.cfi_def_cfa_register 13
 668              		@ sp needed
 669 0024 80BD     		pop	{r7, pc}
 670              		.cfi_endproc
 671              	.LFE67:
 672              		.size	usbPutChar, .-usbPutChar
 673 0026 00BF     		.section	.text.handle_usb,"ax",%progbits
 674              		.align	2
 675              		.global	handle_usb
 676              		.thumb
 677              		.thumb_func
 678              		.type	handle_usb, %function
 679              	handle_usb:
 680              	.LFB68:
 210:main.c        **** 
 211:main.c        **** void handle_usb(void)
 212:main.c        **** {
 681              		.loc 1 212 0
 682              		.cfi_startproc
 683              		@ args = 0, pretend = 0, frame = 8
 684              		@ frame_needed = 1, uses_anonymous_args = 0
 685 0000 80B5     		push	{r7, lr}
 686              		.cfi_def_cfa_offset 8
 687              		.cfi_offset 7, -8
 688              		.cfi_offset 14, -4
 689 0002 82B0     		sub	sp, sp, #8
 690              		.cfi_def_cfa_offset 16
 691 0004 00AF     		add	r7, sp, #0
 692              		.cfi_def_cfa_register 7
 213:main.c        **** #ifdef USE_USB
ARM GAS  C:\Users\dpat391\AppData\Local\Temp\ccumOQZU.s 			page 17


 214:main.c        ****     static uint8 usbStarted = FALSE;
 215:main.c        ****     static uint16 usbBufCount = 0;
 216:main.c        **** 
 217:main.c        ****     if (!usbStarted) {
 693              		.loc 1 217 0
 694 0006 2C4B     		ldr	r3, .L44
 695 0008 1B78     		ldrb	r3, [r3]	@ zero_extendqisi2
 696 000a 002B     		cmp	r3, #0
 697 000c 0AD1     		bne	.L33
 218:main.c        ****         if (USBUART_GetConfiguration()) {
 698              		.loc 1 218 0
 699 000e FFF7FEFF 		bl	USBUART_GetConfiguration
 700 0012 0346     		mov	r3, r0
 701 0014 002B     		cmp	r3, #0
 702 0016 49D0     		beq	.L42
 219:main.c        ****             USBUART_CDC_Init();
 703              		.loc 1 219 0
 704 0018 FFF7FEFF 		bl	USBUART_CDC_Init
 220:main.c        ****             usbStarted = TRUE;
 705              		.loc 1 220 0
 706 001c 264B     		ldr	r3, .L44
 707 001e 0122     		movs	r2, #1
 708 0020 1A70     		strb	r2, [r3]
 221:main.c        ****         }
 222:main.c        ****         return;
 709              		.loc 1 222 0
 710 0022 43E0     		b	.L42
 711              	.L33:
 223:main.c        ****     }
 224:main.c        **** 
 225:main.c        ****     if (USBUART_DataIsReady() == 0) return;
 712              		.loc 1 225 0
 713 0024 FFF7FEFF 		bl	USBUART_DataIsReady
 714 0028 0346     		mov	r3, r0
 715 002a 002B     		cmp	r3, #0
 716 002c 40D0     		beq	.L43
 226:main.c        **** 
 227:main.c        ****     uint8 c = USBUART_GetChar();
 717              		.loc 1 227 0
 718 002e FFF7FEFF 		bl	USBUART_GetChar
 719 0032 0346     		mov	r3, r0
 720 0034 FB71     		strb	r3, [r7, #7]
 228:main.c        **** 
 229:main.c        ****     if ((c == CHAR_ENTER) || (c == '\n')) {
 721              		.loc 1 229 0
 722 0036 FB79     		ldrb	r3, [r7, #7]	@ zero_extendqisi2
 723 0038 0D2B     		cmp	r3, #13
 724 003a 02D0     		beq	.L37
 725              		.loc 1 229 0 is_stmt 0 discriminator 1
 726 003c FB79     		ldrb	r3, [r7, #7]	@ zero_extendqisi2
 727 003e 0A2B     		cmp	r3, #10
 728 0040 10D1     		bne	.L38
 729              	.L37:
 230:main.c        ****         entry[usbBufCount] = '\0';
 730              		.loc 1 230 0 is_stmt 1
 731 0042 1E4B     		ldr	r3, .L44+4
 732 0044 1B88     		ldrh	r3, [r3]
ARM GAS  C:\Users\dpat391\AppData\Local\Temp\ccumOQZU.s 			page 18


 733 0046 1A46     		mov	r2, r3
 734 0048 1D4B     		ldr	r3, .L44+8
 735 004a 0021     		movs	r1, #0
 736 004c 9954     		strb	r1, [r3, r2]
 231:main.c        ****         strcpy(line, entry);
 737              		.loc 1 231 0
 738 004e 1C49     		ldr	r1, .L44+8
 739 0050 1C48     		ldr	r0, .L44+12
 740 0052 FFF7FEFF 		bl	strcpy
 232:main.c        ****         usbBufCount = 0;
 741              		.loc 1 232 0
 742 0056 194B     		ldr	r3, .L44+4
 743 0058 0022     		movs	r2, #0
 744 005a 1A80     		strh	r2, [r3]	@ movhi
 233:main.c        ****         flag_KB_string = 1;
 745              		.loc 1 233 0
 746 005c 1A4B     		ldr	r3, .L44+16
 747 005e 0122     		movs	r2, #1
 748 0060 1A70     		strb	r2, [r3]
 749 0062 26E0     		b	.L32
 750              	.L38:
 234:main.c        ****     } else {
 235:main.c        ****         if (((c == CHAR_BACKSP) || (c == CHAR_DEL)) && (usbBufCount > 0)) {
 751              		.loc 1 235 0
 752 0064 FB79     		ldrb	r3, [r7, #7]	@ zero_extendqisi2
 753 0066 082B     		cmp	r3, #8
 754 0068 02D0     		beq	.L39
 755              		.loc 1 235 0 is_stmt 0 discriminator 2
 756 006a FB79     		ldrb	r3, [r7, #7]	@ zero_extendqisi2
 757 006c 7F2B     		cmp	r3, #127
 758 006e 0AD1     		bne	.L40
 759              	.L39:
 760              		.loc 1 235 0 discriminator 3
 761 0070 124B     		ldr	r3, .L44+4
 762 0072 1B88     		ldrh	r3, [r3]
 763 0074 002B     		cmp	r3, #0
 764 0076 06D0     		beq	.L40
 236:main.c        ****             usbBufCount--;
 765              		.loc 1 236 0 is_stmt 1
 766 0078 104B     		ldr	r3, .L44+4
 767 007a 1B88     		ldrh	r3, [r3]
 768 007c 013B     		subs	r3, r3, #1
 769 007e 9AB2     		uxth	r2, r3
 770 0080 0E4B     		ldr	r3, .L44+4
 771 0082 1A80     		strh	r2, [r3]	@ movhi
 772 0084 15E0     		b	.L32
 773              	.L40:
 237:main.c        ****         } else {
 238:main.c        ****             if (usbBufCount > (BUF_SIZE - 2)) {
 774              		.loc 1 238 0
 775 0086 0D4B     		ldr	r3, .L44+4
 776 0088 1B88     		ldrh	r3, [r3]
 777 008a 3E2B     		cmp	r3, #62
 778 008c 03D9     		bls	.L41
 239:main.c        ****                 USBUART_PutChar('!');
 779              		.loc 1 239 0
 780 008e 2120     		movs	r0, #33
ARM GAS  C:\Users\dpat391\AppData\Local\Temp\ccumOQZU.s 			page 19


 781 0090 FFF7FEFF 		bl	USBUART_PutChar
 782 0094 0DE0     		b	.L32
 783              	.L41:
 240:main.c        ****             } else {
 241:main.c        ****                 entry[usbBufCount++] = (char)c;
 784              		.loc 1 241 0
 785 0096 094B     		ldr	r3, .L44+4
 786 0098 1B88     		ldrh	r3, [r3]
 787 009a 5A1C     		adds	r2, r3, #1
 788 009c 91B2     		uxth	r1, r2
 789 009e 074A     		ldr	r2, .L44+4
 790 00a0 1180     		strh	r1, [r2]	@ movhi
 791 00a2 1946     		mov	r1, r3
 792 00a4 064A     		ldr	r2, .L44+8
 793 00a6 FB79     		ldrb	r3, [r7, #7]
 794 00a8 5354     		strb	r3, [r2, r1]
 795 00aa 02E0     		b	.L32
 796              	.L42:
 222:main.c        ****     }
 797              		.loc 1 222 0
 798 00ac 00BF     		nop
 799 00ae 00E0     		b	.L32
 800              	.L43:
 225:main.c        **** 
 801              		.loc 1 225 0
 802 00b0 00BF     		nop
 803              	.L32:
 242:main.c        ****             }
 243:main.c        ****         }
 244:main.c        ****     }
 245:main.c        **** #endif
 246:main.c        **** }
 804              		.loc 1 246 0
 805 00b2 0837     		adds	r7, r7, #8
 806              		.cfi_def_cfa_offset 8
 807 00b4 BD46     		mov	sp, r7
 808              		.cfi_def_cfa_register 13
 809              		@ sp needed
 810 00b6 80BD     		pop	{r7, pc}
 811              	.L45:
 812              		.align	2
 813              	.L44:
 814 00b8 4A000000 		.word	usbStarted.8734
 815 00bc 4C000000 		.word	usbBufCount.8735
 816 00c0 00000000 		.word	entry
 817 00c4 00000000 		.word	line
 818 00c8 00000000 		.word	flag_KB_string
 819              		.cfi_endproc
 820              	.LFE68:
 821              		.size	handle_usb, .-handle_usb
 822              		.bss
 823              	usbStarted.8734:
 824 004a 00       		.space	1
 825 004b 00       		.align	1
 826              	usbBufCount.8735:
 827 004c 0000     		.space	2
 828              		.text
ARM GAS  C:\Users\dpat391\AppData\Local\Temp\ccumOQZU.s 			page 20


 829              	.Letext0:
 830              		.file 2 "c:\\program files (x86)\\cypress\\psoc creator\\4.2\\psoc creator\\import\\gnu\\arm\\5.4.
 831              		.file 3 "c:\\program files (x86)\\cypress\\psoc creator\\4.2\\psoc creator\\import\\gnu\\arm\\5.4.
 832              		.file 4 "Generated_Source\\PSoC5/cytypes.h"
 833              		.file 5 "main.h"
 834              		.file 6 "vars.h"
 835              		.file 7 "SENSORS_READ.h"
 836              		.file 8 "Generated_Source\\PSoC5/core_cm3.h"