ARM GAS  C:\Users\Calvi\AppData\Local\Temp\ccklNXwf.s 			page 1


   1              		.syntax unified
   2              		.cpu cortex-m3
   3              		.fpu softvfp
   4              		.eabi_attribute 20, 1
   5              		.eabi_attribute 21, 1
   6              		.eabi_attribute 23, 3
   7              		.eabi_attribute 24, 1
   8              		.eabi_attribute 25, 1
   9              		.eabi_attribute 26, 1
  10              		.eabi_attribute 30, 6
  11              		.eabi_attribute 34, 1
  12              		.eabi_attribute 18, 4
  13              		.thumb
  14              		.syntax unified
  15              		.file	"manoeuvre.c"
  16              		.text
  17              	.Ltext0:
  18              		.cfi_sections	.debug_frame
  19              		.section	.text.edge_front_left_manoeuvre,"ax",%progbits
  20              		.align	2
  21              		.global	edge_front_left_manoeuvre
  22              		.thumb
  23              		.thumb_func
  24              		.type	edge_front_left_manoeuvre, %function
  25              	edge_front_left_manoeuvre:
  26              	.LFB64:
  27              		.file 1 "manoeuvre.c"
   1:manoeuvre.c   **** /* ========================================
   2:manoeuvre.c   ****  *
   3:manoeuvre.c   ****  * Copyright YOUR COMPANY, THE YEAR
   4:manoeuvre.c   ****  * All Rights Reserved
   5:manoeuvre.c   ****  * UNPUBLISHED, LICENSED SOFTWARE.
   6:manoeuvre.c   ****  *
   7:manoeuvre.c   ****  * CONFIDENTIAL AND PROPRIETARY INFORMATION
   8:manoeuvre.c   ****  * WHICH IS THE PROPERTY OF your company.
   9:manoeuvre.c   ****  *
  10:manoeuvre.c   ****  * ========================================
  11:manoeuvre.c   **** */
  12:manoeuvre.c   **** 
  13:manoeuvre.c   **** /* [] END OF FILE */
  14:manoeuvre.c   **** 
  15:manoeuvre.c   **** #include "manoeuvre.h"
  16:manoeuvre.c   **** 
  17:manoeuvre.c   **** void edge_front_left_manoeuvre()
  18:manoeuvre.c   **** {
  28              		.loc 1 18 0
  29              		.cfi_startproc
  30              		@ args = 0, pretend = 0, frame = 0
  31              		@ frame_needed = 1, uses_anonymous_args = 0
  32 0000 80B5     		push	{r7, lr}
  33              		.cfi_def_cfa_offset 8
  34              		.cfi_offset 7, -8
  35              		.cfi_offset 14, -4
  36 0002 00AF     		add	r7, sp, #0
  37              		.cfi_def_cfa_register 7
  19:manoeuvre.c   ****     
  20:manoeuvre.c   ****      
ARM GAS  C:\Users\Calvi\AppData\Local\Temp\ccklNXwf.s 			page 2


  21:manoeuvre.c   ****     PWM_1_WriteCompare(178);
  38              		.loc 1 21 0
  39 0004 B220     		movs	r0, #178
  40 0006 FFF7FEFF 		bl	PWM_1_WriteCompare
  22:manoeuvre.c   ****     PWM_2_WriteCompare(179);
  41              		.loc 1 22 0
  42 000a B320     		movs	r0, #179
  43 000c FFF7FEFF 		bl	PWM_2_WriteCompare
  23:manoeuvre.c   **** }
  44              		.loc 1 23 0
  45 0010 00BF     		nop
  46 0012 80BD     		pop	{r7, pc}
  47              		.cfi_endproc
  48              	.LFE64:
  49              		.size	edge_front_left_manoeuvre, .-edge_front_left_manoeuvre
  50              		.section	.text.edge_front_right_manoeuvre,"ax",%progbits
  51              		.align	2
  52              		.global	edge_front_right_manoeuvre
  53              		.thumb
  54              		.thumb_func
  55              		.type	edge_front_right_manoeuvre, %function
  56              	edge_front_right_manoeuvre:
  57              	.LFB65:
  24:manoeuvre.c   **** void edge_front_right_manoeuvre()
  25:manoeuvre.c   **** {
  58              		.loc 1 25 0
  59              		.cfi_startproc
  60              		@ args = 0, pretend = 0, frame = 0
  61              		@ frame_needed = 1, uses_anonymous_args = 0
  62 0000 80B5     		push	{r7, lr}
  63              		.cfi_def_cfa_offset 8
  64              		.cfi_offset 7, -8
  65              		.cfi_offset 14, -4
  66 0002 00AF     		add	r7, sp, #0
  67              		.cfi_def_cfa_register 7
  26:manoeuvre.c   ****     PWM_1_WriteCompare(174);
  68              		.loc 1 26 0
  69 0004 AE20     		movs	r0, #174
  70 0006 FFF7FEFF 		bl	PWM_1_WriteCompare
  27:manoeuvre.c   ****     PWM_2_WriteCompare(183);
  71              		.loc 1 27 0
  72 000a B720     		movs	r0, #183
  73 000c FFF7FEFF 		bl	PWM_2_WriteCompare
  28:manoeuvre.c   **** }
  74              		.loc 1 28 0
  75 0010 00BF     		nop
  76 0012 80BD     		pop	{r7, pc}
  77              		.cfi_endproc
  78              	.LFE65:
  79              		.size	edge_front_right_manoeuvre, .-edge_front_right_manoeuvre
  80              		.section	.text.edge_mid_left_manoeuvre,"ax",%progbits
  81              		.align	2
  82              		.global	edge_mid_left_manoeuvre
  83              		.thumb
  84              		.thumb_func
  85              		.type	edge_mid_left_manoeuvre, %function
  86              	edge_mid_left_manoeuvre:
ARM GAS  C:\Users\Calvi\AppData\Local\Temp\ccklNXwf.s 			page 3


  87              	.LFB66:
  29:manoeuvre.c   **** void edge_mid_left_manoeuvre()
  30:manoeuvre.c   **** {
  88              		.loc 1 30 0
  89              		.cfi_startproc
  90              		@ args = 0, pretend = 0, frame = 0
  91              		@ frame_needed = 1, uses_anonymous_args = 0
  92 0000 80B5     		push	{r7, lr}
  93              		.cfi_def_cfa_offset 8
  94              		.cfi_offset 7, -8
  95              		.cfi_offset 14, -4
  96 0002 00AF     		add	r7, sp, #0
  97              		.cfi_def_cfa_register 7
  31:manoeuvre.c   ****     PWM_1_WriteCompare(174);
  98              		.loc 1 31 0
  99 0004 AE20     		movs	r0, #174
 100 0006 FFF7FEFF 		bl	PWM_1_WriteCompare
  32:manoeuvre.c   ****     PWM_2_WriteCompare(183);
 101              		.loc 1 32 0
 102 000a B720     		movs	r0, #183
 103 000c FFF7FEFF 		bl	PWM_2_WriteCompare
  33:manoeuvre.c   **** }
 104              		.loc 1 33 0
 105 0010 00BF     		nop
 106 0012 80BD     		pop	{r7, pc}
 107              		.cfi_endproc
 108              	.LFE66:
 109              		.size	edge_mid_left_manoeuvre, .-edge_mid_left_manoeuvre
 110              		.section	.text.edge_mid_right_manoeuvre,"ax",%progbits
 111              		.align	2
 112              		.global	edge_mid_right_manoeuvre
 113              		.thumb
 114              		.thumb_func
 115              		.type	edge_mid_right_manoeuvre, %function
 116              	edge_mid_right_manoeuvre:
 117              	.LFB67:
  34:manoeuvre.c   **** void edge_mid_right_manoeuvre()
  35:manoeuvre.c   **** {
 118              		.loc 1 35 0
 119              		.cfi_startproc
 120              		@ args = 0, pretend = 0, frame = 0
 121              		@ frame_needed = 1, uses_anonymous_args = 0
 122 0000 80B5     		push	{r7, lr}
 123              		.cfi_def_cfa_offset 8
 124              		.cfi_offset 7, -8
 125              		.cfi_offset 14, -4
 126 0002 00AF     		add	r7, sp, #0
 127              		.cfi_def_cfa_register 7
  36:manoeuvre.c   ****     PWM_1_WriteCompare(178);
 128              		.loc 1 36 0
 129 0004 B220     		movs	r0, #178
 130 0006 FFF7FEFF 		bl	PWM_1_WriteCompare
  37:manoeuvre.c   ****     PWM_2_WriteCompare(179);
 131              		.loc 1 37 0
 132 000a B320     		movs	r0, #179
 133 000c FFF7FEFF 		bl	PWM_2_WriteCompare
  38:manoeuvre.c   **** }
ARM GAS  C:\Users\Calvi\AppData\Local\Temp\ccklNXwf.s 			page 4


 134              		.loc 1 38 0
 135 0010 00BF     		nop
 136 0012 80BD     		pop	{r7, pc}
 137              		.cfi_endproc
 138              	.LFE67:
 139              		.size	edge_mid_right_manoeuvre, .-edge_mid_right_manoeuvre
 140              		.section	.text.edge_left_wing_manoeuvre,"ax",%progbits
 141              		.align	2
 142              		.global	edge_left_wing_manoeuvre
 143              		.thumb
 144              		.thumb_func
 145              		.type	edge_left_wing_manoeuvre, %function
 146              	edge_left_wing_manoeuvre:
 147              	.LFB68:
  39:manoeuvre.c   **** 
  40:manoeuvre.c   **** void edge_left_wing_manoeuvre()
  41:manoeuvre.c   **** {
 148              		.loc 1 41 0
 149              		.cfi_startproc
 150              		@ args = 0, pretend = 0, frame = 0
 151              		@ frame_needed = 1, uses_anonymous_args = 0
 152 0000 80B5     		push	{r7, lr}
 153              		.cfi_def_cfa_offset 8
 154              		.cfi_offset 7, -8
 155              		.cfi_offset 14, -4
 156 0002 00AF     		add	r7, sp, #0
 157              		.cfi_def_cfa_register 7
  42:manoeuvre.c   ****     // Hard left turn
  43:manoeuvre.c   ****     while (Output_5_Read() == 1 || Output_4_Read() == 1) {
 158              		.loc 1 43 0
 159 0004 05E0     		b	.L6
 160              	.L7:
  44:manoeuvre.c   ****         PWM_2_WriteCompare(157);
 161              		.loc 1 44 0
 162 0006 9D20     		movs	r0, #157
 163 0008 FFF7FEFF 		bl	PWM_2_WriteCompare
  45:manoeuvre.c   ****         PWM_1_WriteCompare(67);
 164              		.loc 1 45 0
 165 000c 4320     		movs	r0, #67
 166 000e FFF7FEFF 		bl	PWM_1_WriteCompare
 167              	.L6:
  43:manoeuvre.c   ****         PWM_2_WriteCompare(157);
 168              		.loc 1 43 0
 169 0012 FFF7FEFF 		bl	Output_5_Read
 170 0016 0346     		mov	r3, r0
 171 0018 012B     		cmp	r3, #1
 172 001a F4D0     		beq	.L7
  43:manoeuvre.c   ****         PWM_2_WriteCompare(157);
 173              		.loc 1 43 0 is_stmt 0 discriminator 1
 174 001c FFF7FEFF 		bl	Output_4_Read
 175 0020 0346     		mov	r3, r0
 176 0022 012B     		cmp	r3, #1
 177 0024 EFD0     		beq	.L7
  46:manoeuvre.c   ****     } 
  47:manoeuvre.c   **** 
  48:manoeuvre.c   **** }
 178              		.loc 1 48 0 is_stmt 1
ARM GAS  C:\Users\Calvi\AppData\Local\Temp\ccklNXwf.s 			page 5


 179 0026 00BF     		nop
 180 0028 80BD     		pop	{r7, pc}
 181              		.cfi_endproc
 182              	.LFE68:
 183              		.size	edge_left_wing_manoeuvre, .-edge_left_wing_manoeuvre
 184 002a 00BF     		.section	.text.edge_right_wing_manoeuvre,"ax",%progbits
 185              		.align	2
 186              		.global	edge_right_wing_manoeuvre
 187              		.thumb
 188              		.thumb_func
 189              		.type	edge_right_wing_manoeuvre, %function
 190              	edge_right_wing_manoeuvre:
 191              	.LFB69:
  49:manoeuvre.c   **** 
  50:manoeuvre.c   **** void edge_right_wing_manoeuvre()
  51:manoeuvre.c   **** {
 192              		.loc 1 51 0
 193              		.cfi_startproc
 194              		@ args = 0, pretend = 0, frame = 0
 195              		@ frame_needed = 1, uses_anonymous_args = 0
 196 0000 80B5     		push	{r7, lr}
 197              		.cfi_def_cfa_offset 8
 198              		.cfi_offset 7, -8
 199              		.cfi_offset 14, -4
 200 0002 00AF     		add	r7, sp, #0
 201              		.cfi_def_cfa_register 7
  52:manoeuvre.c   ****     while (Output_5_Read() == 1 || Output_4_Read() == 1)  {
 202              		.loc 1 52 0
 203 0004 05E0     		b	.L9
 204              	.L10:
  53:manoeuvre.c   ****         PWM_1_WriteCompare(150);
 205              		.loc 1 53 0
 206 0006 9620     		movs	r0, #150
 207 0008 FFF7FEFF 		bl	PWM_1_WriteCompare
  54:manoeuvre.c   ****         PWM_2_WriteCompare(55);
 208              		.loc 1 54 0
 209 000c 3720     		movs	r0, #55
 210 000e FFF7FEFF 		bl	PWM_2_WriteCompare
 211              	.L9:
  52:manoeuvre.c   ****     while (Output_5_Read() == 1 || Output_4_Read() == 1)  {
 212              		.loc 1 52 0
 213 0012 FFF7FEFF 		bl	Output_5_Read
 214 0016 0346     		mov	r3, r0
 215 0018 012B     		cmp	r3, #1
 216 001a F4D0     		beq	.L10
  52:manoeuvre.c   ****     while (Output_5_Read() == 1 || Output_4_Read() == 1)  {
 217              		.loc 1 52 0 is_stmt 0 discriminator 1
 218 001c FFF7FEFF 		bl	Output_4_Read
 219 0020 0346     		mov	r3, r0
 220 0022 012B     		cmp	r3, #1
 221 0024 EFD0     		beq	.L10
  55:manoeuvre.c   ****     }
  56:manoeuvre.c   **** }
 222              		.loc 1 56 0 is_stmt 1
 223 0026 00BF     		nop
 224 0028 80BD     		pop	{r7, pc}
 225              		.cfi_endproc
ARM GAS  C:\Users\Calvi\AppData\Local\Temp\ccklNXwf.s 			page 6


 226              	.LFE69:
 227              		.size	edge_right_wing_manoeuvre, .-edge_right_wing_manoeuvre
 228 002a 00BF     		.text
 229              	.Letext0:
 230              		.file 2 "c:\\program files (x86)\\cypress\\psoc creator\\4.4\\psoc creator\\import\\gnu\\arm\\5.4.
 231              		.file 3 "c:\\program files (x86)\\cypress\\psoc creator\\4.4\\psoc creator\\import\\gnu\\arm\\5.4.
 232              		.file 4 "Generated_Source\\PSoC5/core_cm3.h"