ARM GAS  C:\Users\cta10\AppData\Local\Temp\ccDRUt8Y.s 			page 1


   1              		.syntax unified
   2              		.cpu cortex-m3
   3              		.fpu softvfp
   4              		.eabi_attribute 20, 1
   5              		.eabi_attribute 21, 1
   6              		.eabi_attribute 23, 3
   7              		.eabi_attribute 24, 1
   8              		.eabi_attribute 25, 1
   9              		.eabi_attribute 26, 1
  10              		.eabi_attribute 30, 6
  11              		.eabi_attribute 34, 1
  12              		.eabi_attribute 18, 4
  13              		.thumb
  14              		.syntax unified
  15              		.file	"MOVEMENT.c"
  16              		.text
  17              	.Ltext0:
  18              		.cfi_sections	.debug_frame
  19              		.section	.text.move,"ax",%progbits
  20              		.align	2
  21              		.global	move
  22              		.thumb
  23              		.thumb_func
  24              		.type	move, %function
  25              	move:
  26              	.LFB64:
  27              		.file 1 "MOVEMENT.c"
   1:MOVEMENT.c    **** /* ========================================
   2:MOVEMENT.c    ****  *
   3:MOVEMENT.c    ****  * Copyright YOUR COMPANY, THE YEAR
   4:MOVEMENT.c    ****  * All Rights Reserved
   5:MOVEMENT.c    ****  * UNPUBLISHED, LICENSED SOFTWARE.
   6:MOVEMENT.c    ****  *
   7:MOVEMENT.c    ****  * CONFIDENTIAL AND PROPRIETARY INFORMATION
   8:MOVEMENT.c    ****  * WHICH IS THE PROPERTY OF your company.
   9:MOVEMENT.c    ****  *
  10:MOVEMENT.c    ****  * ========================================
  11:MOVEMENT.c    **** */
  12:MOVEMENT.c    **** #include "STRAIGHT.h"
  13:MOVEMENT.c    **** #include "STOP.h"
  14:MOVEMENT.c    **** #include "DRIFTED_LEFT.h"
  15:MOVEMENT.c    **** #include "DRIFTED_RIGHT.h"
  16:MOVEMENT.c    **** #include "LEFT_TURN.h"
  17:MOVEMENT.c    **** #include "RIGHT_TURN.h"
  18:MOVEMENT.c    **** #include "SENSORS_READ.h"
  19:MOVEMENT.c    **** /* [] END OF FILE */
  20:MOVEMENT.c    **** void move(MovementState movement)
  21:MOVEMENT.c    **** {
  28              		.loc 1 21 0
  29              		.cfi_startproc
  30              		@ args = 0, pretend = 0, frame = 8
  31              		@ frame_needed = 1, uses_anonymous_args = 0
  32 0000 80B5     		push	{r7, lr}
  33              		.cfi_def_cfa_offset 8
  34              		.cfi_offset 7, -8
  35              		.cfi_offset 14, -4
  36 0002 82B0     		sub	sp, sp, #8
ARM GAS  C:\Users\cta10\AppData\Local\Temp\ccDRUt8Y.s 			page 2


  37              		.cfi_def_cfa_offset 16
  38 0004 00AF     		add	r7, sp, #0
  39              		.cfi_def_cfa_register 7
  40 0006 0346     		mov	r3, r0
  41 0008 FB71     		strb	r3, [r7, #7]
  22:MOVEMENT.c    ****     if(movement == STOP)
  42              		.loc 1 22 0
  43 000a FB79     		ldrb	r3, [r7, #7]	@ zero_extendqisi2
  44 000c 052B     		cmp	r3, #5
  45 000e 02D1     		bne	.L2
  23:MOVEMENT.c    ****     {
  24:MOVEMENT.c    ****         STOP_MOVING();
  46              		.loc 1 24 0
  47 0010 FFF7FEFF 		bl	STOP_MOVING
  25:MOVEMENT.c    ****     }
  26:MOVEMENT.c    ****     else if (movement == DRIFTED_LEFT)
  27:MOVEMENT.c    ****     {
  28:MOVEMENT.c    ****         DRIFT_LEFT();
  29:MOVEMENT.c    ****     }
  30:MOVEMENT.c    ****     else if (movement == DRIFTED_RIGHT)
  31:MOVEMENT.c    ****     {
  32:MOVEMENT.c    ****         DRIFT_RIGHT();
  33:MOVEMENT.c    ****     }
  34:MOVEMENT.c    ****     else if (movement == LEFT_TURN)
  35:MOVEMENT.c    ****     {
  36:MOVEMENT.c    ****         TURN_LEFT();
  37:MOVEMENT.c    ****     }
  38:MOVEMENT.c    ****     else if (movement == RIGHT_TURN)
  39:MOVEMENT.c    ****     {
  40:MOVEMENT.c    ****         TURN_RIGHT();
  41:MOVEMENT.c    ****     }
  42:MOVEMENT.c    ****     else if (movement == STRAIGHT)
  43:MOVEMENT.c    ****     {
  44:MOVEMENT.c    ****         MOVE_STRAIGHT();
  45:MOVEMENT.c    ****     }
  46:MOVEMENT.c    ****     
  47:MOVEMENT.c    **** }...
  48              		.loc 1 47 0
  49 0014 1CE0     		b	.L8
  50              	.L2:
  26:MOVEMENT.c    ****     else if (movement == DRIFTED_LEFT)
  51              		.loc 1 26 0
  52 0016 FB79     		ldrb	r3, [r7, #7]	@ zero_extendqisi2
  53 0018 032B     		cmp	r3, #3
  54 001a 02D1     		bne	.L4
  28:MOVEMENT.c    ****         DRIFT_LEFT();
  55              		.loc 1 28 0
  56 001c FFF7FEFF 		bl	DRIFT_LEFT
  57              		.loc 1 47 0
  58 0020 16E0     		b	.L8
  59              	.L4:
  30:MOVEMENT.c    ****     else if (movement == DRIFTED_RIGHT)
  60              		.loc 1 30 0
  61 0022 FB79     		ldrb	r3, [r7, #7]	@ zero_extendqisi2
  62 0024 042B     		cmp	r3, #4
  63 0026 02D1     		bne	.L5
  32:MOVEMENT.c    ****         DRIFT_RIGHT();
ARM GAS  C:\Users\cta10\AppData\Local\Temp\ccDRUt8Y.s 			page 3


  64              		.loc 1 32 0
  65 0028 FFF7FEFF 		bl	DRIFT_RIGHT
  66              		.loc 1 47 0
  67 002c 10E0     		b	.L8
  68              	.L5:
  34:MOVEMENT.c    ****     else if (movement == LEFT_TURN)
  69              		.loc 1 34 0
  70 002e FB79     		ldrb	r3, [r7, #7]	@ zero_extendqisi2
  71 0030 012B     		cmp	r3, #1
  72 0032 02D1     		bne	.L6
  36:MOVEMENT.c    ****         TURN_LEFT();
  73              		.loc 1 36 0
  74 0034 FFF7FEFF 		bl	TURN_LEFT
  75              		.loc 1 47 0
  76 0038 0AE0     		b	.L8
  77              	.L6:
  38:MOVEMENT.c    ****     else if (movement == RIGHT_TURN)
  78              		.loc 1 38 0
  79 003a FB79     		ldrb	r3, [r7, #7]	@ zero_extendqisi2
  80 003c 022B     		cmp	r3, #2
  81 003e 02D1     		bne	.L7
  40:MOVEMENT.c    ****         TURN_RIGHT();
  82              		.loc 1 40 0
  83 0040 FFF7FEFF 		bl	TURN_RIGHT
  84              		.loc 1 47 0
  85 0044 04E0     		b	.L8
  86              	.L7:
  42:MOVEMENT.c    ****     else if (movement == STRAIGHT)
  87              		.loc 1 42 0
  88 0046 FB79     		ldrb	r3, [r7, #7]	@ zero_extendqisi2
  89 0048 002B     		cmp	r3, #0
  90 004a 01D1     		bne	.L8
  44:MOVEMENT.c    ****         MOVE_STRAIGHT();
  91              		.loc 1 44 0
  92 004c FFF7FEFF 		bl	MOVE_STRAIGHT
  93              	.L8:
  94              		.loc 1 47 0
  95 0050 00BF     		nop
  96 0052 0837     		adds	r7, r7, #8
  97              		.cfi_def_cfa_offset 8
  98 0054 BD46     		mov	sp, r7
  99              		.cfi_def_cfa_register 13
 100              		@ sp needed
 101 0056 80BD     		pop	{r7, pc}
 102              		.cfi_endproc
 103              	.LFE64:
 104              		.size	move, .-move
 105              		.text
 106              	.Letext0:
 107              		.file 2 "c:\\cypress\\psoc creator\\4.4\\psoc creator\\import\\gnu\\arm\\5.4.1\\arm-none-eabi\\inc
 108              		.file 3 "c:\\cypress\\psoc creator\\4.4\\psoc creator\\import\\gnu\\arm\\5.4.1\\arm-none-eabi\\inc
 109              		.file 4 "SENSORS_READ.h"
 110              		.file 5 "Generated_Source\\PSoC5/core_cm3.h"