ARM GAS  C:\Users\Calvi\AppData\Local\Temp\cc5THWBU.s 			page 1


   1              		.syntax unified
   2              		.cpu cortex-m3
   3              		.fpu softvfp
   4              		.eabi_attribute 20, 1
   5              		.eabi_attribute 21, 1
   6              		.eabi_attribute 23, 3
   7              		.eabi_attribute 24, 1
   8              		.eabi_attribute 25, 1
   9              		.eabi_attribute 26, 1
  10              		.eabi_attribute 30, 6
  11              		.eabi_attribute 34, 1
  12              		.eabi_attribute 18, 4
  13              		.thumb
  14              		.syntax unified
  15              		.file	"SENSORS_READ.c"
  16              		.text
  17              	.Ltext0:
  18              		.cfi_sections	.debug_frame
  19              		.comm	sensorValues,1,1
  20              		.comm	previous_movement,1,1
  21              		.comm	current_movement,1,1
  22              		.global	this_struct
  23              		.bss
  24              		.align	2
  25              		.type	this_struct, %object
  26              		.size	this_struct, 6
  27              	this_struct:
  28 0000 00000000 		.space	6
  28      0000
  29              		.section	.text.ReadSensors,"ax",%progbits
  30              		.align	2
  31              		.global	ReadSensors
  32              		.thumb
  33              		.thumb_func
  34              		.type	ReadSensors, %function
  35              	ReadSensors:
  36              	.LFB64:
  37              		.file 1 "SENSORS_READ.c"
   1:SENSORS_READ.c **** /* ========================================
   2:SENSORS_READ.c ****  *
   3:SENSORS_READ.c ****  * Copyright YOUR COMPANY, THE YEAR
   4:SENSORS_READ.c ****  * All Rights Reserved
   5:SENSORS_READ.c ****  * UNPUBLISHED, LICENSED SOFTWARE.
   6:SENSORS_READ.c ****  *
   7:SENSORS_READ.c ****  * CONFIDENTIAL AND PROPRIETARY INFORMATION
   8:SENSORS_READ.c ****  * WHICH IS THE PROPERTY OF your company.
   9:SENSORS_READ.c ****  *
  10:SENSORS_READ.c ****  * ========================================
  11:SENSORS_READ.c **** */
  12:SENSORS_READ.c **** 
  13:SENSORS_READ.c **** /* [] END OF FILE */
  14:SENSORS_READ.c **** 
  15:SENSORS_READ.c **** #include "SENSORS_READ.h"
  16:SENSORS_READ.c **** 
  17:SENSORS_READ.c **** uint8 sensorValues;
  18:SENSORS_READ.c **** MovementState previous_movement;
  19:SENSORS_READ.c **** MovementState current_movement;
ARM GAS  C:\Users\Calvi\AppData\Local\Temp\cc5THWBU.s 			page 2


  20:SENSORS_READ.c **** struct MyStructure {   // Structure declaration
  21:SENSORS_READ.c ****     uint8_t output1;
  22:SENSORS_READ.c ****     uint8_t output2;
  23:SENSORS_READ.c ****     uint8_t output3;
  24:SENSORS_READ.c ****     uint8_t output4;
  25:SENSORS_READ.c ****     uint8_t output5;
  26:SENSORS_READ.c ****     uint8_t output6;
  27:SENSORS_READ.c **** };
  28:SENSORS_READ.c **** struct MyStructure this_struct = {0,0,0,0,0,0};
  29:SENSORS_READ.c **** // Read 6 output pins are turn into a pattern
  30:SENSORS_READ.c **** uint8 ReadSensors(void) {
  38              		.loc 1 30 0
  39              		.cfi_startproc
  40              		@ args = 0, pretend = 0, frame = 8
  41              		@ frame_needed = 1, uses_anonymous_args = 0
  42 0000 80B5     		push	{r7, lr}
  43              		.cfi_def_cfa_offset 8
  44              		.cfi_offset 7, -8
  45              		.cfi_offset 14, -4
  46 0002 82B0     		sub	sp, sp, #8
  47              		.cfi_def_cfa_offset 16
  48 0004 00AF     		add	r7, sp, #0
  49              		.cfi_def_cfa_register 7
  31:SENSORS_READ.c ****     uint8 sensorValues = 0;
  50              		.loc 1 31 0
  51 0006 0023     		movs	r3, #0
  52 0008 FB71     		strb	r3, [r7, #7]
  32:SENSORS_READ.c ****     
  33:SENSORS_READ.c ****    sensorValues |= Output_5_Read() << 0; // Right
  53              		.loc 1 33 0
  54 000a FFF7FEFF 		bl	Output_5_Read
  55 000e 0346     		mov	r3, r0
  56 0010 5AB2     		sxtb	r2, r3
  57 0012 97F90730 		ldrsb	r3, [r7, #7]
  58 0016 1343     		orrs	r3, r3, r2
  59 0018 5BB2     		sxtb	r3, r3
  60 001a FB71     		strb	r3, [r7, #7]
  34:SENSORS_READ.c ****    sensorValues |= Output_6_Read() << 1;
  61              		.loc 1 34 0
  62 001c FFF7FEFF 		bl	Output_6_Read
  63 0020 0346     		mov	r3, r0
  64 0022 5B00     		lsls	r3, r3, #1
  65 0024 5AB2     		sxtb	r2, r3
  66 0026 97F90730 		ldrsb	r3, [r7, #7]
  67 002a 1343     		orrs	r3, r3, r2
  68 002c 5BB2     		sxtb	r3, r3
  69 002e FB71     		strb	r3, [r7, #7]
  35:SENSORS_READ.c ****    sensorValues |= Output_1_Read() << 2;
  70              		.loc 1 35 0
  71 0030 FFF7FEFF 		bl	Output_1_Read
  72 0034 0346     		mov	r3, r0
  73 0036 9B00     		lsls	r3, r3, #2
  74 0038 5AB2     		sxtb	r2, r3
  75 003a 97F90730 		ldrsb	r3, [r7, #7]
  76 003e 1343     		orrs	r3, r3, r2
  77 0040 5BB2     		sxtb	r3, r3
  78 0042 FB71     		strb	r3, [r7, #7]
ARM GAS  C:\Users\Calvi\AppData\Local\Temp\cc5THWBU.s 			page 3


  36:SENSORS_READ.c ****    sensorValues |= Output_3_Read() << 3;
  79              		.loc 1 36 0
  80 0044 FFF7FEFF 		bl	Output_3_Read
  81 0048 0346     		mov	r3, r0
  82 004a DB00     		lsls	r3, r3, #3
  83 004c 5AB2     		sxtb	r2, r3
  84 004e 97F90730 		ldrsb	r3, [r7, #7]
  85 0052 1343     		orrs	r3, r3, r2
  86 0054 5BB2     		sxtb	r3, r3
  87 0056 FB71     		strb	r3, [r7, #7]
  37:SENSORS_READ.c ****    sensorValues |= Output_2_Read() << 4;
  88              		.loc 1 37 0
  89 0058 FFF7FEFF 		bl	Output_2_Read
  90 005c 0346     		mov	r3, r0
  91 005e 1B01     		lsls	r3, r3, #4
  92 0060 5AB2     		sxtb	r2, r3
  93 0062 97F90730 		ldrsb	r3, [r7, #7]
  94 0066 1343     		orrs	r3, r3, r2
  95 0068 5BB2     		sxtb	r3, r3
  96 006a FB71     		strb	r3, [r7, #7]
  38:SENSORS_READ.c ****    sensorValues |= Output_4_Read() << 5; // Left
  97              		.loc 1 38 0
  98 006c FFF7FEFF 		bl	Output_4_Read
  99 0070 0346     		mov	r3, r0
 100 0072 5B01     		lsls	r3, r3, #5
 101 0074 5AB2     		sxtb	r2, r3
 102 0076 97F90730 		ldrsb	r3, [r7, #7]
 103 007a 1343     		orrs	r3, r3, r2
 104 007c 5BB2     		sxtb	r3, r3
 105 007e FB71     		strb	r3, [r7, #7]
  39:SENSORS_READ.c ****    
  40:SENSORS_READ.c ****    //this_struct.output1 = Output_1_Read();
  41:SENSORS_READ.c ****     //this_struct.output2 = Output_2_Read();
  42:SENSORS_READ.c ****     //this_struct.output3 = Output_3_Read();
  43:SENSORS_READ.c ****     //this_struct.output4 = Output_4_Read();
  44:SENSORS_READ.c ****     //this_struct.output5 = Output_5_Read();
  45:SENSORS_READ.c ****     //this_struct.output6 = Output_6_Read();
  46:SENSORS_READ.c ****    return sensorValues;
 106              		.loc 1 46 0
 107 0080 FB79     		ldrb	r3, [r7, #7]	@ zero_extendqisi2
  47:SENSORS_READ.c **** }
 108              		.loc 1 47 0
 109 0082 1846     		mov	r0, r3
 110 0084 0837     		adds	r7, r7, #8
 111              		.cfi_def_cfa_offset 8
 112 0086 BD46     		mov	sp, r7
 113              		.cfi_def_cfa_register 13
 114              		@ sp needed
 115 0088 80BD     		pop	{r7, pc}
 116              		.cfi_endproc
 117              	.LFE64:
 118              		.size	ReadSensors, .-ReadSensors
 119 008a 00BF     		.section	.text.GetMovement,"ax",%progbits
 120              		.align	2
 121              		.global	GetMovement
 122              		.thumb
 123              		.thumb_func
ARM GAS  C:\Users\Calvi\AppData\Local\Temp\cc5THWBU.s 			page 4


 124              		.type	GetMovement, %function
 125              	GetMovement:
 126              	.LFB65:
  48:SENSORS_READ.c **** 
  49:SENSORS_READ.c **** // Use pattern to decide how the robot should move
  50:SENSORS_READ.c **** MovementState GetMovement(void) {
 127              		.loc 1 50 0
 128              		.cfi_startproc
 129              		@ args = 0, pretend = 0, frame = 8
 130              		@ frame_needed = 1, uses_anonymous_args = 0
 131 0000 80B5     		push	{r7, lr}
 132              		.cfi_def_cfa_offset 8
 133              		.cfi_offset 7, -8
 134              		.cfi_offset 14, -4
 135 0002 82B0     		sub	sp, sp, #8
 136              		.cfi_def_cfa_offset 16
 137 0004 00AF     		add	r7, sp, #0
 138              		.cfi_def_cfa_register 7
  51:SENSORS_READ.c ****     uint8 sensors = ReadSensors();
 139              		.loc 1 51 0
 140 0006 FFF7FEFF 		bl	ReadSensors
 141 000a 0346     		mov	r3, r0
 142 000c FB71     		strb	r3, [r7, #7]
  52:SENSORS_READ.c ****     switch(sensors) {
 143              		.loc 1 52 0
 144 000e FB79     		ldrb	r3, [r7, #7]	@ zero_extendqisi2
 145 0010 3C2B     		cmp	r3, #60
 146 0012 00F2C180 		bhi	.L4
 147 0016 01A2     		adr	r2, .L6
 148 0018 52F823F0 		ldr	pc, [r2, r3, lsl #2]
 149              		.p2align 2
 150              	.L6:
 151 001c 91010000 		.word	.L5+1
 152 0020 99010000 		.word	.L4+1
 153 0024 41010000 		.word	.L7+1
 154 0028 99010000 		.word	.L4+1
 155 002c 99010000 		.word	.L4+1
 156 0030 99010000 		.word	.L4+1
 157 0034 99010000 		.word	.L4+1
 158 0038 99010000 		.word	.L4+1
 159 003c 29010000 		.word	.L8+1
 160 0040 99010000 		.word	.L4+1
 161 0044 11010000 		.word	.L9+1
 162 0048 89010000 		.word	.L10+1
 163 004c 99010000 		.word	.L4+1
 164 0050 99010000 		.word	.L4+1
 165 0054 99010000 		.word	.L4+1
 166 0058 79010000 		.word	.L11+1
 167 005c 99010000 		.word	.L4+1
 168 0060 99010000 		.word	.L4+1
 169 0064 99010000 		.word	.L4+1
 170 0068 99010000 		.word	.L4+1
 171 006c 99010000 		.word	.L4+1
 172 0070 99010000 		.word	.L4+1
 173 0074 49010000 		.word	.L12+1
 174 0078 99010000 		.word	.L4+1
 175 007c 99010000 		.word	.L4+1
ARM GAS  C:\Users\Calvi\AppData\Local\Temp\cc5THWBU.s 			page 5


 176 0080 99010000 		.word	.L4+1
 177 0084 99010000 		.word	.L4+1
 178 0088 99010000 		.word	.L4+1
 179 008c 31010000 		.word	.L13+1
 180 0090 99010000 		.word	.L4+1
 181 0094 19010000 		.word	.L14+1
 182 0098 99010000 		.word	.L4+1
 183 009c 99010000 		.word	.L4+1
 184 00a0 99010000 		.word	.L4+1
 185 00a4 99010000 		.word	.L4+1
 186 00a8 51010000 		.word	.L15+1
 187 00ac 99010000 		.word	.L4+1
 188 00b0 99010000 		.word	.L4+1
 189 00b4 99010000 		.word	.L4+1
 190 00b8 99010000 		.word	.L4+1
 191 00bc 99010000 		.word	.L4+1
 192 00c0 39010000 		.word	.L16+1
 193 00c4 61010000 		.word	.L17+1
 194 00c8 21010000 		.word	.L18+1
 195 00cc 99010000 		.word	.L4+1
 196 00d0 99010000 		.word	.L4+1
 197 00d4 99010000 		.word	.L4+1
 198 00d8 81010000 		.word	.L19+1
 199 00dc 99010000 		.word	.L4+1
 200 00e0 99010000 		.word	.L4+1
 201 00e4 99010000 		.word	.L4+1
 202 00e8 99010000 		.word	.L4+1
 203 00ec 99010000 		.word	.L4+1
 204 00f0 99010000 		.word	.L4+1
 205 00f4 99010000 		.word	.L4+1
 206 00f8 99010000 		.word	.L4+1
 207 00fc 99010000 		.word	.L4+1
 208 0100 99010000 		.word	.L4+1
 209 0104 69010000 		.word	.L20+1
 210 0108 71010000 		.word	.L21+1
 211 010c 59010000 		.word	.L22+1
 212              		.p2align 1
 213              	.L9:
  53:SENSORS_READ.c ****             case 0b001010: current_movement = STRAIGHT; break;
 214              		.loc 1 53 0
 215 0110 2F4B     		ldr	r3, .L27
 216 0112 0022     		movs	r2, #0
 217 0114 1A70     		strb	r2, [r3]
 218 0116 43E0     		b	.L23
 219              	.L14:
  54:SENSORS_READ.c ****     case 0b011110: current_movement = STRAIGHT; break;
 220              		.loc 1 54 0
 221 0118 2D4B     		ldr	r3, .L27
 222 011a 0022     		movs	r2, #0
 223 011c 1A70     		strb	r2, [r3]
 224 011e 3FE0     		b	.L23
 225              	.L18:
  55:SENSORS_READ.c ****     case 0b101011: current_movement = STRAIGHT; break;
 226              		.loc 1 55 0
 227 0120 2B4B     		ldr	r3, .L27
 228 0122 0022     		movs	r2, #0
 229 0124 1A70     		strb	r2, [r3]
ARM GAS  C:\Users\Calvi\AppData\Local\Temp\cc5THWBU.s 			page 6


 230 0126 3BE0     		b	.L23
 231              	.L8:
  56:SENSORS_READ.c **** 
  57:SENSORS_READ.c ****     case 0b001000: current_movement = LEFT_TURN; break;
 232              		.loc 1 57 0
 233 0128 294B     		ldr	r3, .L27
 234 012a 0122     		movs	r2, #1
 235 012c 1A70     		strb	r2, [r3]
 236 012e 37E0     		b	.L23
 237              	.L13:
  58:SENSORS_READ.c ****     case 0b011100: current_movement = LEFT_TURN; break;
 238              		.loc 1 58 0
 239 0130 274B     		ldr	r3, .L27
 240 0132 0122     		movs	r2, #1
 241 0134 1A70     		strb	r2, [r3]
 242 0136 33E0     		b	.L23
 243              	.L16:
  59:SENSORS_READ.c ****     case 0b101001: current_movement = LEFT_TURN; break;
 244              		.loc 1 59 0
 245 0138 254B     		ldr	r3, .L27
 246 013a 0122     		movs	r2, #1
 247 013c 1A70     		strb	r2, [r3]
 248 013e 2FE0     		b	.L23
 249              	.L7:
  60:SENSORS_READ.c **** 
  61:SENSORS_READ.c ****     case 0b000010: current_movement = RIGHT_TURN; break;
 250              		.loc 1 61 0
 251 0140 234B     		ldr	r3, .L27
 252 0142 0222     		movs	r2, #2
 253 0144 1A70     		strb	r2, [r3]
 254 0146 2BE0     		b	.L23
 255              	.L12:
  62:SENSORS_READ.c ****     case 0b010110: current_movement = RIGHT_TURN; break;
 256              		.loc 1 62 0
 257 0148 214B     		ldr	r3, .L27
 258 014a 0222     		movs	r2, #2
 259 014c 1A70     		strb	r2, [r3]
 260 014e 27E0     		b	.L23
 261              	.L15:
  63:SENSORS_READ.c ****     case 0b100011: current_movement = RIGHT_TURN; break;
 262              		.loc 1 63 0
 263 0150 1F4B     		ldr	r3, .L27
 264 0152 0222     		movs	r2, #2
 265 0154 1A70     		strb	r2, [r3]
 266 0156 23E0     		b	.L23
 267              	.L22:
  64:SENSORS_READ.c **** 
  65:SENSORS_READ.c ****     case 0b111100: current_movement = DRIFTED_RIGHT; break;
 268              		.loc 1 65 0
 269 0158 1D4B     		ldr	r3, .L27
 270 015a 0422     		movs	r2, #4
 271 015c 1A70     		strb	r2, [r3]
 272 015e 1FE0     		b	.L23
 273              	.L17:
  66:SENSORS_READ.c ****     case 0b101010: current_movement = DRIFTED_RIGHT; break;
 274              		.loc 1 66 0
 275 0160 1B4B     		ldr	r3, .L27
ARM GAS  C:\Users\Calvi\AppData\Local\Temp\cc5THWBU.s 			page 7


 276 0162 0422     		movs	r2, #4
 277 0164 1A70     		strb	r2, [r3]
 278 0166 1BE0     		b	.L23
 279              	.L20:
  67:SENSORS_READ.c ****     case 0b111010: current_movement = DRIFTED_RIGHT; break;
 280              		.loc 1 67 0
 281 0168 194B     		ldr	r3, .L27
 282 016a 0422     		movs	r2, #4
 283 016c 1A70     		strb	r2, [r3]
 284 016e 17E0     		b	.L23
 285              	.L21:
  68:SENSORS_READ.c ****     case 0b111011: current_movement = DRIFTED_RIGHT; break;
 286              		.loc 1 68 0
 287 0170 174B     		ldr	r3, .L27
 288 0172 0422     		movs	r2, #4
 289 0174 1A70     		strb	r2, [r3]
 290 0176 13E0     		b	.L23
 291              	.L11:
  69:SENSORS_READ.c **** 
  70:SENSORS_READ.c ****     case 0b001111: current_movement = DRIFTED_LEFT; break;
 292              		.loc 1 70 0
 293 0178 154B     		ldr	r3, .L27
 294 017a 0322     		movs	r2, #3
 295 017c 1A70     		strb	r2, [r3]
 296 017e 0FE0     		b	.L23
 297              	.L19:
  71:SENSORS_READ.c ****     case 0b101111: current_movement = DRIFTED_LEFT; break;
 298              		.loc 1 71 0
 299 0180 134B     		ldr	r3, .L27
 300 0182 0322     		movs	r2, #3
 301 0184 1A70     		strb	r2, [r3]
 302 0186 0BE0     		b	.L23
 303              	.L10:
  72:SENSORS_READ.c ****     case 0b001011: current_movement = DRIFTED_LEFT; break;
 304              		.loc 1 72 0
 305 0188 114B     		ldr	r3, .L27
 306 018a 0322     		movs	r2, #3
 307 018c 1A70     		strb	r2, [r3]
 308 018e 07E0     		b	.L23
 309              	.L5:
  73:SENSORS_READ.c **** 
  74:SENSORS_READ.c ****     case 0b000000: current_movement = STOP; break;
 310              		.loc 1 74 0
 311 0190 0F4B     		ldr	r3, .L27
 312 0192 0522     		movs	r2, #5
 313 0194 1A70     		strb	r2, [r3]
 314 0196 03E0     		b	.L23
 315              	.L4:
  75:SENSORS_READ.c **** 
  76:SENSORS_READ.c ****     default: current_movement = STOP; break;
 316              		.loc 1 76 0
 317 0198 0D4B     		ldr	r3, .L27
 318 019a 0522     		movs	r2, #5
 319 019c 1A70     		strb	r2, [r3]
 320 019e 00BF     		nop
 321              	.L23:
  77:SENSORS_READ.c ****     }
ARM GAS  C:\Users\Calvi\AppData\Local\Temp\cc5THWBU.s 			page 8


  78:SENSORS_READ.c ****     
  79:SENSORS_READ.c ****     // during turning, do nothing
  80:SENSORS_READ.c ****     if ((previous_movement == LEFT_TURN || previous_movement == RIGHT_TURN) && current_movement != 
 322              		.loc 1 80 0
 323 01a0 0C4B     		ldr	r3, .L27+4
 324 01a2 1B78     		ldrb	r3, [r3]	@ zero_extendqisi2
 325 01a4 012B     		cmp	r3, #1
 326 01a6 03D0     		beq	.L24
 327              		.loc 1 80 0 is_stmt 0 discriminator 2
 328 01a8 0A4B     		ldr	r3, .L27+4
 329 01aa 1B78     		ldrb	r3, [r3]	@ zero_extendqisi2
 330 01ac 022B     		cmp	r3, #2
 331 01ae 05D1     		bne	.L25
 332              	.L24:
 333              		.loc 1 80 0 discriminator 3
 334 01b0 074B     		ldr	r3, .L27
 335 01b2 1B78     		ldrb	r3, [r3]	@ zero_extendqisi2
 336 01b4 002B     		cmp	r3, #0
 337 01b6 01D0     		beq	.L25
  81:SENSORS_READ.c ****     {
  82:SENSORS_READ.c ****         return WAIT;
 338              		.loc 1 82 0 is_stmt 1
 339 01b8 0623     		movs	r3, #6
 340 01ba 05E0     		b	.L26
 341              	.L25:
  83:SENSORS_READ.c ****     }
  84:SENSORS_READ.c ****     
  85:SENSORS_READ.c ****     previous_movement = current_movement;
 342              		.loc 1 85 0
 343 01bc 044B     		ldr	r3, .L27
 344 01be 1A78     		ldrb	r2, [r3]	@ zero_extendqisi2
 345 01c0 044B     		ldr	r3, .L27+4
 346 01c2 1A70     		strb	r2, [r3]
  86:SENSORS_READ.c ****     return current_movement;
 347              		.loc 1 86 0
 348 01c4 024B     		ldr	r3, .L27
 349 01c6 1B78     		ldrb	r3, [r3]	@ zero_extendqisi2
 350              	.L26:
  87:SENSORS_READ.c **** }
 351              		.loc 1 87 0
 352 01c8 1846     		mov	r0, r3
 353 01ca 0837     		adds	r7, r7, #8
 354              		.cfi_def_cfa_offset 8
 355 01cc BD46     		mov	sp, r7
 356              		.cfi_def_cfa_register 13
 357              		@ sp needed
 358 01ce 80BD     		pop	{r7, pc}
 359              	.L28:
 360              		.align	2
 361              	.L27:
 362 01d0 00000000 		.word	current_movement
 363 01d4 00000000 		.word	previous_movement
 364              		.cfi_endproc
 365              	.LFE65:
 366              		.size	GetMovement, .-GetMovement
 367              		.text
 368              	.Letext0:
ARM GAS  C:\Users\Calvi\AppData\Local\Temp\cc5THWBU.s 			page 9


 369              		.file 2 "c:\\program files (x86)\\cypress\\psoc creator\\4.4\\psoc creator\\import\\gnu\\arm\\5.4.
 370              		.file 3 "c:\\program files (x86)\\cypress\\psoc creator\\4.4\\psoc creator\\import\\gnu\\arm\\5.4.
 371              		.file 4 "Generated_Source\\PSoC5/cytypes.h"
 372              		.file 5 "SENSORS_READ.h"
 373              		.file 6 "Generated_Source\\PSoC5/core_cm3.h"